(dp0
(I20
I4
cnumpy.core.multiarray
scalar
p1
(cnumpy
dtype
p2
(S'f8'
p3
I0
I1
tp4
Rp5
(I3
S'<'
p6
NNNI-1
I-1
I0
tp7
bS'\x00\x00\x00\x00\x00\x00T@'
p8
tp9
Rp10
I01
tp11
F84.22010004547522
s(I20
I12
g1
(g5
S'\x00\x00\x00\x00\x00\x00F@'
p12
tp13
Rp14
I00
tp15
F0.0
s(I20
I12
g1
(g5
S'\x00\x00\x00\x00\x00\x00$@'
p16
tp17
Rp18
I01
tp19
F0.0
s(I20
I13
g1
(g5
S'\x00\x00\x00\x00\x00\x80W@'
p20
tp21
Rp22
I01
tp23
F0.0
s(I20
I2
g1
(g5
S'\x00\x00\x00\x00\x00\x00D@'
p24
tp25
Rp26
I00
tp27
F21.108857336037865
s(I20
I2
g1
(g5
S'\x00\x00\x00\x00\x00\x00$@'
p28
tp29
Rp30
I01
tp31
F0.0
s(I20
I10
g1
(g5
S'\x00\x00\x00\x00\x00\x00H@'
p32
tp33
Rp34
I01
tp35
F0.0
s(I20
I3
g1
(g5
S'\x00\x00\x00\x00\x00\x00C@'
p36
tp37
Rp38
I01
tp39
F0.0
s(I20
I11
g1
(g5
S'\x00\x00\x00\x00\x00\x00<@'
p40
tp41
Rp42
I01
tp43
F0.0
s(I20
I11
g1
(g5
S'\x00\x00\x00\x00\x00\x00O@'
p44
tp45
Rp46
I00
tp47
F0.0
s(I20
I1
g1
(g5
S'\x00\x00\x00\x00\x00\x00G@'
p48
tp49
Rp50
I01
tp51
F73.53342428376534
s(I20
I1
g1
(g5
S'\x00\x00\x00\x00\x00\x00S@'
p52
tp53
Rp54
I00
tp55
F96.86274509803921
s(I20
I6
g1
(g5
S'\x00\x00\x00\x00\x00\x00P@'
p56
tp57
Rp58
I00
tp59
F0.0
s(I20
I6
g1
(g5
S'\x00\x00\x00\x00\x00\x00A@'
p60
tp61
Rp62
I01
tp63
F0.0
s(I20
I9
g1
(g5
S'\x00\x00\x00\x00\x00\x000@'
p64
tp65
Rp66
I01
tp67
F0.0
s(I20
I9
g1
(g5
S'\x00\x00\x00\x00\x00\x00K@'
p68
tp69
Rp70
I00
tp71
F0.0
s(I20
I14
g1
(g5
S'\x00\x00\x00\x00\x00\x00V@'
p72
tp73
Rp74
I01
tp75
F0.0
s(I20
I7
g1
(g5
S'\x00\x00\x00\x00\x00\x00K@'
p76
tp77
Rp78
I01
tp79
F0.0
s(I20
I4
g1
(g5
S'\x00\x00\x00\x00\x00\x00E@'
p80
tp81
Rp82
I01
tp83
F0.0
s(I20
I5
g1
(g5
S'\x00\x00\x00\x00\x00\x00O@'
p84
tp85
Rp86
I01
tp87
F0.0
s(I20
I5
g1
(g5
S'\x00\x00\x00\x00\x00\x00W@'
p88
tp89
Rp90
I00
tp91
F96.28127112914132
s(I20
I13
g1
(g5
S'\x00\x00\x00\x00\x00\x00\x18@'
p92
tp93
Rp94
I00
tp95
F0.0
s(I20
I2
g1
(g5
S'\x00\x00\x00\x00\x00\x00X@'
p96
tp97
Rp98
I01
tp99
F100.0
s(I20
I3
g1
(g5
S'\x00\x00\x00\x00\x00\x00>@'
p100
tp101
Rp102
I00
tp103
F0.0
s(I20
I11
g1
(g5
S'\x00\x00\x00\x00\x00\x00Q@'
p104
tp105
Rp106
I00
tp107
F0.0
s(I20
I7
g1
(g5
S'\x00\x00\x00\x00\x00\x00S@'
p108
tp109
Rp110
I01
tp111
F0.0
s(I20
I8
g1
(g5
S'\x00\x00\x00\x00\x00\x80P@'
p112
tp113
Rp114
I01
tp115
F0.0
s(I20
I4
g1
(g5
S'\x00\x00\x00\x00\x00\x80T@'
p116
tp117
Rp118
I00
tp119
F84.65179175118324
s(I20
I12
g1
(g5
S'\x00\x00\x00\x00\x00\x00(@'
p120
tp121
Rp122
I00
tp123
F0.0
s(I20
I2
g1
(g5
S'\x00\x00\x00\x00\x00\x00 @'
p124
tp125
Rp126
I00
tp127
F0.0
s(I20
I10
g1
(g5
S'\x00\x00\x00\x00\x00\x80S@'
p128
tp129
Rp130
I00
tp131
F0.0
s(I20
I10
g1
(g5
S'\x00\x00\x00\x00\x00\x000@'
p132
tp133
Rp134
I01
tp135
F0.0
s(I20
I11
g1
(g5
S'\x00\x00\x00\x00\x00\x00N@'
p136
tp137
Rp138
I01
tp139
F0.0
s(I20
I8
g1
(g5
S'\x00\x00\x00\x00\x00\x00B@'
p140
tp141
Rp142
I01
tp143
F0.0
s(I20
I1
g1
(g5
S'\x00\x00\x00\x00\x00\x80S@'
p144
tp145
Rp146
I01
tp147
F98.61300591177809
s(I20
I6
g1
(g5
S'\x00\x00\x00\x00\x00\x00@@'
p148
tp149
Rp150
I00
tp151
F0.0
s(I20
I6
g1
(g5
S'\x00\x00\x00\x00\x00\x00\x00@'
p152
tp153
Rp154
I01
tp155
F0.0
s(I20
I9
g1
(g5
S'\x00\x00\x00\x00\x00\x00H@'
p156
tp157
Rp158
I01
tp159
F0.0
s(I20
I9
g1
(g5
S'\x00\x00\x00\x00\x00\x80U@'
p160
tp161
Rp162
I00
tp163
F0.0
s(I20
I14
g1
(g5
S'\x00\x00\x00\x00\x00\x80W@'
p164
tp165
Rp166
I00
tp167
F0.0
s(I20
I14
g1
(g5
S'\x00\x00\x00\x00\x00\x00L@'
p168
tp169
Rp170
I01
tp171
F0.0
s(I20
I4
g1
(g5
S'\x00\x00\x00\x00\x00\x00F@'
p172
tp173
Rp174
I00
tp175
F0.0
s(I20
I4
g1
(g5
S'\x00\x00\x00\x00\x00\x00$@'
p176
tp177
Rp178
I01
tp179
F0.0
s(I20
I12
g1
(g5
S'\x00\x00\x00\x00\x00\x00J@'
p180
tp181
Rp182
I01
tp183
F0.0
s(I20
I5
g1
(g5
S'\x00\x00\x00\x00\x00\x80W@'
p184
tp185
Rp186
I01
tp187
F99.18144611186904
s(I20
I13
g1
(g5
S'\x00\x00\x00\x00\x00\x008@'
p188
tp189
Rp190
I01
tp191
F0.0
s(I20
I13
g1
(g5
S'\x00\x00\x00\x00\x00\x00C@'
p192
tp193
Rp194
I00
tp195
F0.0
s(I20
I2
g1
(g5
S'\x00\x00\x00\x00\x00\x00P@'
p196
tp197
Rp198
I01
tp199
F82.62846748522055
s(I20
I3
g1
(g5
S'\x00\x00\x00\x00\x00\x00<@'
p200
tp201
Rp202
I01
tp203
F0.0
s(I20
I3
g1
(g5
S'\x00\x00\x00\x00\x00\x00O@'
p204
tp205
Rp206
I00
tp207
F50.0473292765382
s(I20
I11
g1
(g5
S'\x00\x00\x00\x00\x00\x80P@'
p208
tp209
Rp210
I01
tp211
F0.0
s(I20
I1
g1
(g5
S'\x00\x00\x00\x00\x00\x00\x18@'
p212
tp213
Rp214
I00
tp215
F0.0
s(I20
I6
g1
(g5
S'\x00\x00\x00\x00\x00\x00V@'
p216
tp217
Rp218
I01
tp219
F65.75716234652114
s(I20
I7
g1
(g5
S'\x00\x00\x00\x00\x00\x00,@'
p220
tp221
Rp222
I00
tp223
F0.0
s(I20
I5
g1
(g5
S'\x00\x00\x00\x00\x00\x006@'
p224
tp225
Rp226
I00
tp227
F0.0
s(I20
I8
g1
(g5
S'\x00\x00\x00\x00\x00\x00W@'
p228
tp229
Rp230
I00
tp231
F0.013522650439486139
s(I20
I3
g1
(g5
S'\x00\x00\x00\x00\x00\x00U@'
p232
tp233
Rp234
I00
tp235
F94.91548343475321
s(I20
I12
g1
(g5
S'\x00\x00\x00\x00\x00\x80R@'
p236
tp237
Rp238
I01
tp239
F0.0
s(I20
I10
g1
(g5
S'\x00\x00\x00\x00\x00\x00G@'
p240
tp241
Rp242
I00
tp243
F0.0
s(I20
I8
g1
(g5
S'\x00\x00\x00\x00\x00\x00C@'
p244
tp245
Rp246
I00
tp247
F0.0
s(I20
I8
g1
(g5
S'\x00\x00\x00\x00\x00\x00\x10@'
p248
tp249
Rp250
I01
tp251
F0.0
s(I20
I6
g1
(g5
S'\x00\x00\x00\x00\x00\x00\x00\x00'
p252
tp253
Rp254
I00
tp255
F0.0
s(I20
I9
g1
(g5
S'\x00\x00\x00\x00\x00\x00T@'
p256
tp257
Rp258
I01
tp259
F0.0
s(I20
I14
g1
(g5
S'\x00\x00\x00\x00\x00\x00O@'
p260
tp261
Rp262
I00
tp263
F0.0
s(I20
I14
g1
(g5
S'\x00\x00\x00\x00\x00\x008@'
p264
tp265
Rp266
I01
tp267
F0.0
s(I20
I4
g1
(g5
S'\x00\x00\x00\x00\x00\x00(@'
p268
tp269
Rp270
I00
tp271
F0.0
s(I20
I12
g1
(g5
S'\x00\x00\x00\x00\x00\x00K@'
p272
tp273
Rp274
I00
tp275
F0.0
s(I20
I12
g1
(g5
S'\x00\x00\x00\x00\x00\x004@'
p276
tp277
Rp278
I01
tp279
F0.0
s(I20
I13
g1
(g5
S'\x00\x00\x00\x00\x00\x00L@'
p280
tp281
Rp282
I01
tp283
F0.0
s(I20
I13
g1
(g5
S'\x00\x00\x00\x00\x00\x80Q@'
p284
tp285
Rp286
I00
tp287
F0.0
s(I20
I2
g1
(g5
S'\x00\x00\x00\x00\x00\x80S@'
p288
tp289
Rp290
I00
tp291
F93.73901284651792
s(I20
I2
g1
(g5
S'\x00\x00\x00\x00\x00\x00@@'
p292
tp293
Rp294
I01
tp295
F2.1600727603456114
s(I20
I10
g1
(g5
S'\x00\x00\x00\x00\x00\x80U@'
p296
tp297
Rp298
I01
tp299
F0.0
s(I20
I3
g1
(g5
S'\x00\x00\x00\x00\x00\x00N@'
p300
tp301
Rp302
I01
tp303
F48.84038199181446
s(I20
I11
g1
(g5
S'\x00\x00\x00\x00\x00\x80X@'
p304
tp305
Rp306
I01
tp307
F0.0
s(I20
I11
g1
(g5
S'\x00\x00\x00\x00\x00\x00\x10@'
p308
tp309
Rp310
I00
tp311
F0.0
s(I20
I1
g1
(g5
S'\x00\x00\x00\x00\x00\x00\x00\x00'
p312
tp313
Rp314
I01
tp315
F0.0
s(I20
I1
g1
(g5
S'\x00\x00\x00\x00\x00\x00C@'
p316
tp317
Rp318
I00
tp319
F57.5659229208925
s(I20
I6
g1
(g5
S'\x00\x00\x00\x00\x00\x80W@'
p320
tp321
Rp322
I00
tp323
F94.50980392156862
s(I20
I6
g1
(g5
S'\x00\x00\x00\x00\x00\x00L@'
p324
tp325
Rp326
I01
tp327
F0.0
s(I20
I9
g1
(g5
S'\x00\x00\x00\x00\x00\x008@'
p328
tp329
Rp330
I00
tp331
F0.0
s(I20
I7
g1
(g5
S'\x00\x00\x00\x00\x00\x00(@'
p332
tp333
Rp334
I01
tp335
F0.0
s(I20
I7
g1
(g5
S'\x00\x00\x00\x00\x00\x00G@'
p336
tp337
Rp338
I00
tp339
F0.0
s(I20
I5
g1
(g5
S'\x00\x00\x00\x00\x00\x008@'
p340
tp341
Rp342
I01
tp343
F0.0
s(I20
I5
g1
(g5
S'\x00\x00\x00\x00\x00\x00K@'
p344
tp345
Rp346
I00
tp347
F0.0
s(I20
I3
g1
(g5
S'\x00\x00\x00\x00\x00\x80T@'
p348
tp349
Rp350
I01
tp351
F94.38381082310141
s(I20
I12
g1
(g5
S'\x00\x00\x00\x00\x00\x00S@'
p352
tp353
Rp354
I00
tp355
F0.0
s(I20
I7
g1
(g5
S'\x00\x00\x00\x00\x00\x00Q@'
p356
tp357
Rp358
I00
tp359
F0.0
s(I20
I10
g1
(g5
S'\x00\x00\x00\x00\x00\x00,@'
p360
tp361
Rp362
I00
tp363
F0.0
s(I20
I8
g1
(g5
S'\x00\x00\x00\x00\x00\x00\x18@'
p364
tp365
Rp366
I00
tp367
F0.0
s(I20
I14
g1
(g5
S'\x00\x00\x00\x00\x00\x00>@'
p368
tp369
Rp370
I00
tp371
F0.0
s(I20
I4
g1
(g5
S'\x00\x00\x00\x00\x00\x80R@'
p372
tp373
Rp374
I01
tp375
F64.77944520236471
s(I20
I12
g1
(g5
S'\x00\x00\x00\x00\x00\x006@'
p376
tp377
Rp378
I00
tp379
F0.0
s(I20
I13
g1
(g5
S'\x00\x00\x00\x00\x00\x00V@'
p380
tp381
Rp382
I01
tp383
F0.0
s(I20
I2
g1
(g5
S'\x00\x00\x00\x00\x00\x00G@'
p384
tp385
Rp386
I00
tp387
F37.038539553752535
s(I20
I2
g1
(g5
S'\x00\x00\x00\x00\x00\x00\x00\x00'
p388
tp389
Rp390
I01
tp391
F0.0
s(I20
I10
g1
(g5
S'\x00\x00\x00\x00\x00\x00U@'
p392
tp393
Rp394
I00
tp395
F0.0
s(I20
I10
g1
(g5
S'\x00\x00\x00\x00\x00\x00K@'
p396
tp397
Rp398
I01
tp399
F0.0
s(I20
I11
g1
(g5
S'\x00\x00\x00\x00\x00\x00\x00@'
p400
tp401
Rp402
I01
tp403
F0.0
s(I20
I11
g1
(g5
S'\x00\x00\x00\x00\x00\x00B@'
p404
tp405
Rp406
I00
tp407
F0.0
s(I20
I1
g1
(g5
S'\x00\x00\x00\x00\x00\x00@@'
p408
tp409
Rp410
I01
tp411
F47.13506139154161
s(I20
I1
g1
(g5
S'\x00\x00\x00\x00\x00\x80Q@'
p412
tp413
Rp414
I00
tp415
F93.04935767410413
s(I20
I6
g1
(g5
S'\x00\x00\x00\x00\x00\x00O@'
p416
tp417
Rp418
I00
tp419
F0.0
s(I20
I6
g1
(g5
S'\x00\x00\x00\x00\x00\x008@'
p420
tp421
Rp422
I01
tp423
F0.0
s(I20
I9
g1
(g5
S'\x00\x00\x00\x00\x00\x00:@'
p424
tp425
Rp426
I01
tp427
F0.0
s(I20
I9
g1
(g5
S'\x00\x00\x00\x00\x00\x00L@'
p428
tp429
Rp430
I00
tp431
F0.0
s(I20
I14
g1
(g5
S'\x00\x00\x00\x00\x00\x80Q@'
p432
tp433
Rp434
I01
tp435
F0.0
s(I20
I7
g1
(g5
S'\x00\x00\x00\x00\x00\x00F@'
p436
tp437
Rp438
I01
tp439
F0.0
s(I20
I4
g1
(g5
S'\x00\x00\x00\x00\x00\x00B@'
p440
tp441
Rp442
I01
tp443
F0.0
s(I20
I5
g1
(g5
S'\x00\x00\x00\x00\x00\x00L@'
p444
tp445
Rp446
I01
tp447
F0.0
s(I20
I5
g1
(g5
S'\x00\x00\x00\x00\x00\x80U@'
p448
tp449
Rp450
I00
tp451
F81.48749154834347
s(I20
I13
g1
(g5
S'\x00\x00\x00\x00\x00\x00\x00\x00'
p452
tp453
Rp454
I00
tp455
F0.0
s(I20
I3
g1
(g5
S'\x00\x00\x00\x00\x00\x004@'
p456
tp457
Rp458
I00
tp459
F0.0
s(I20
I11
g1
(g5
S'\x00\x00\x00\x00\x00\x80R@'
p460
tp461
Rp462
I00
tp463
F0.0
s(I20
I1
g1
(g5
S'\x00\x00\x00\x00\x00\x008@'
p464
tp465
Rp466
I00
tp467
F23.826910074374577
s(I20
I7
g1
(g5
S'\x00\x00\x00\x00\x00\x80R@'
p468
tp469
Rp470
I01
tp471
F0.0
s(I20
I8
g1
(g5
S'\x00\x00\x00\x00\x00\x00Q@'
p472
tp473
Rp474
I01
tp475
F0.0
s(I20
I4
g1
(g5
S'\x00\x00\x00\x00\x00\x00S@'
p476
tp477
Rp478
I00
tp479
F68.18120351588911
s(I20
I12
g1
(g5
S'\x00\x00\x00\x00\x00\x00U@'
p480
tp481
Rp482
I01
tp483
F0.0
s(I20
I2
g1
(g5
S'\x00\x00\x00\x00\x00\x00,@'
p484
tp485
Rp486
I00
tp487
F0.0
s(I20
I10
g1
(g5
S'\x00\x00\x00\x00\x00\x00J@'
p488
tp489
Rp490
I00
tp491
F0.0
s(I20
I10
g1
(g5
S'\x00\x00\x00\x00\x00\x006@'
p492
tp493
Rp494
I01
tp495
F0.0
s(I20
I11
g1
(g5
S'\x00\x00\x00\x00\x00\x00A@'
p496
tp497
Rp498
I01
tp499
F0.0
s(I20
I8
g1
(g5
S'\x00\x00\x00\x00\x00\x00G@'
p500
tp501
Rp502
I01
tp503
F0.0
s(I20
I1
g1
(g5
S'\x00\x00\x00\x00\x00\x00P@'
p504
tp505
Rp506
I01
tp507
F90.63210550250113
s(I20
I6
g1
(g5
S'\x00\x00\x00\x00\x00\x00>@'
p508
tp509
Rp510
I00
tp511
F0.0
s(I20
I9
g1
(g5
S'\x00\x00\x00\x00\x00\x00M@'
p512
tp513
Rp514
I01
tp515
F0.0
s(I20
I9
g1
(g5
S'\x00\x00\x00\x00\x00\x00V@'
p516
tp517
Rp518
I00
tp519
F0.0
s(I20
I14
g1
(g5
S'\x00\x00\x00\x00\x00\x00Q@'
p520
tp521
Rp522
I00
tp523
F0.0
s(I20
I14
g1
(g5
S'\x00\x00\x00\x00\x00\x00C@'
p524
tp525
Rp526
I01
tp527
F0.0
s(I20
I4
g1
(g5
S'\x00\x00\x00\x00\x00\x00C@'
p528
tp529
Rp530
I00
tp531
F0.0
s(I20
I4
g1
(g5
S'\x00\x00\x00\x00\x00\x00\x10@'
p532
tp533
Rp534
I01
tp535
F0.0
s(I20
I12
g1
(g5
S'\x00\x00\x00\x00\x00\x00O@'
p536
tp537
Rp538
I01
tp539
F0.0
s(I20
I5
g1
(g5
S'\x00\x00\x00\x00\x00\x00V@'
p540
tp541
Rp542
I01
tp543
F89.81355161437017
s(I20
I13
g1
(g5
S'\x00\x00\x00\x00\x00\x00\x00@'
p544
tp545
Rp546
I01
tp547
F0.0
s(I20
I13
g1
(g5
S'\x00\x00\x00\x00\x00\x00@@'
p548
tp549
Rp550
I00
tp551
F0.0
s(I20
I2
g1
(g5
S'\x00\x00\x00\x00\x00\x80Q@'
p552
tp553
Rp554
I01
tp555
F88.79035925420645
s(I20
I3
g1
(g5
S'\x00\x00\x00\x00\x00\x002@'
p556
tp557
Rp558
I01
tp559
F0.0
s(I20
I3
g1
(g5
S'\x00\x00\x00\x00\x00\x00J@'
p560
tp561
Rp562
I00
tp563
F14.726166328600407
s(I20
I11
g1
(g5
S'\x00\x00\x00\x00\x00\x00R@'
p564
tp565
Rp566
I01
tp567
F0.0
s(I20
I1
g1
(g5
S'\x00\x00\x00\x00\x00\x00:@'
p568
tp569
Rp570
I01
tp571
F33.765347885402456
s(I20
I1
g1
(g5
S'\x00\x00\x00\x00\x00\x00L@'
p572
tp573
Rp574
I00
tp575
F84.08384043272481
s(I20
I6
g1
(g5
S'\x00\x00\x00\x00\x00\x80U@'
p576
tp577
Rp578
I01
tp579
F47.7262391996362
s(I20
I7
g1
(g5
S'\x00\x00\x00\x00\x00\x00\x10@'
p580
tp581
Rp582
I00
tp583
F0.0
s(I20
I5
g1
(g5
S'\x00\x00\x00\x00\x00\x000@'
p584
tp585
Rp586
I00
tp587
F0.0
s(I20
I8
g1
(g5
S'\x00\x00\x00\x00\x00\x80Q@'
p588
tp589
Rp590
I00
tp591
F0.0
s(I20
I3
g1
(g5
S'\x00\x00\x00\x00\x00\x80R@'
p592
tp593
Rp594
I00
tp595
F81.56862745098039
s(I20
I12
g1
(g5
S'\x00\x00\x00\x00\x00\x80U@'
p596
tp597
Rp598
I00
tp599
F0.0
s(I20
I10
g1
(g5
S'\x00\x00\x00\x00\x00\x004@'
p600
tp601
Rp602
I00
tp603
F0.0
s(I20
I8
g1
(g5
S'\x00\x00\x00\x00\x00\x00D@'
p604
tp605
Rp606
I00
tp607
F0.0
s(I20
I8
g1
(g5
S'\x00\x00\x00\x00\x00\x00,@'
p608
tp609
Rp610
I01
tp611
F0.0
s(I20
I1
g1
(g5
S'\x00\x00\x00\x00\x00\x00X@'
p612
tp613
Rp614
I01
tp615
F100.0
s(I20
I9
g1
(g5
S'\x00\x00\x00\x00\x00\x80V@'
p616
tp617
Rp618
I01
tp619
F0.0
s(I20
I14
g1
(g5
S'\x00\x00\x00\x00\x00\x00B@'
p620
tp621
Rp622
I00
tp623
F0.0
s(I20
I14
g1
(g5
S'\x00\x00\x00\x00\x00\x00\x18@'
p624
tp625
Rp626
I01
tp627
F0.0
s(I20
I4
g1
(g5
S'\x00\x00\x00\x00\x00\x00\x18@'
p628
tp629
Rp630
I00
tp631
F0.0
s(I20
I12
g1
(g5
S'\x00\x00\x00\x00\x00\x00H@'
p632
tp633
Rp634
I00
tp635
F0.0
s(I20
I12
g1
(g5
S'\x00\x00\x00\x00\x00\x00>@'
p636
tp637
Rp638
I01
tp639
F0.0
s(I20
I13
g1
(g5
S'\x00\x00\x00\x00\x00\x00A@'
p640
tp641
Rp642
I01
tp643
F0.0
s(I20
I13
g1
(g5
S'\x00\x00\x00\x00\x00\x00P@'
p644
tp645
Rp646
I00
tp647
F0.0
s(I20
I2
g1
(g5
S'\x00\x00\x00\x00\x00\x00Q@'
p648
tp649
Rp650
I00
tp651
F84.59770114942529
s(I20
I2
g1
(g5
S'\x00\x00\x00\x00\x00\x00C@'
p652
tp653
Rp654
I01
tp655
F17.849022282855845
s(I20
I10
g1
(g5
S'\x00\x00\x00\x00\x00\x00W@'
p656
tp657
Rp658
I01
tp659
F0.0
s(I20
I3
g1
(g5
S'\x00\x00\x00\x00\x00\x00I@'
p660
tp661
Rp662
I01
tp663
F10.618462937698954
s(I20
I11
g1
(g5
S'\x00\x00\x00\x00\x00\x00$@'
p664
tp665
Rp666
I00
tp667
F0.0
s(I20
I1
g1
(g5
S'\x00\x00\x00\x00\x00\x00M@'
p668
tp669
Rp670
I01
tp671
F86.56207366984994
s(I20
I1
g1
(g5
S'\x00\x00\x00\x00\x00\x00V@'
p672
tp673
Rp674
I00
tp675
F100.0
s(I20
I6
g1
(g5
S'\x00\x00\x00\x00\x00\x00U@'
p676
tp677
Rp678
I00
tp679
F24.408384043272484
s(I20
I6
g1
(g5
S'\x00\x00\x00\x00\x00\x00K@'
p680
tp681
Rp682
I01
tp683
F0.0
s(I20
I9
g1
(g5
S'\x00\x00\x00\x00\x00\x00\x00@'
p684
tp685
Rp686
I00
tp687
F0.0
s(I20
I7
g1
(g5
S'\x00\x00\x00\x00\x00\x00$@'
p688
tp689
Rp690
I01
tp691
F0.0
s(I20
I7
g1
(g5
S'\x00\x00\x00\x00\x00\x00B@'
p692
tp693
Rp694
I00
tp695
F0.0
s(I20
I4
g1
(g5
S'\x00\x00\x00\x00\x00\x00O@'
p696
tp697
Rp698
I01
tp699
F11.255115961800819
s(I20
I5
g1
(g5
S'\x00\x00\x00\x00\x00\x002@'
p700
tp701
Rp702
I01
tp703
F0.0
s(I20
I5
g1
(g5
S'\x00\x00\x00\x00\x00\x00H@'
p704
tp705
Rp706
I00
tp707
F0.0
s(I20
I3
g1
(g5
S'\x00\x00\x00\x00\x00\x00R@'
p708
tp709
Rp710
I01
tp711
F81.90086402910414
s(I20
I11
g1
(g5
S'\x00\x00\x00\x00\x00\x00T@'
p712
tp713
Rp714
I00
tp715
F0.0
s(I20
I7
g1
(g5
S'\x00\x00\x00\x00\x00\x80P@'
p716
tp717
Rp718
I00
tp719
F0.0
s(I20
I8
g1
(g5
S'\x00\x00\x00\x00\x00\x00 @'
p720
tp721
Rp722
I00
tp723
F0.0
s(I20
I14
g1
(g5
S'\x00\x00\x00\x00\x00\x00\x10@'
p724
tp725
Rp726
I00
tp727
F0.0
s(I20
I4
g1
(g5
S'\x00\x00\x00\x00\x00\x00Q@'
p728
tp729
Rp730
I01
tp731
F38.13096862210095
s(I20
I12
g1
(g5
S'\x00\x00\x00\x00\x00\x000@'
p732
tp733
Rp734
I00
tp735
F0.0
s(I20
I13
g1
(g5
S'\x00\x00\x00\x00\x00\x80P@'
p736
tp737
Rp738
I01
tp739
F0.0
s(I20
I13
g1
(g5
S'\x00\x00\x00\x00\x00\x00X@'
p740
tp741
Rp742
I00
tp743
F0.0
s(I20
I2
g1
(g5
S'\x00\x00\x00\x00\x00\x00B@'
p744
tp745
Rp746
I00
tp747
F8.951994590939824
s(I20
I2
g1
(g5
S'\x00\x00\x00\x00\x00\x00\x18@'
p748
tp749
Rp750
I01
tp751
F0.0
s(I20
I10
g1
(g5
S'\x00\x00\x00\x00\x00\x80V@'
p752
tp753
Rp754
I00
tp755
F0.0
s(I20
I10
g1
(g5
S'\x00\x00\x00\x00\x00\x00N@'
p756
tp757
Rp758
I01
tp759
F0.0
s(I20
I11
g1
(g5
S'\x00\x00\x00\x00\x00\x00 @'
p760
tp761
Rp762
I01
tp763
F0.0
s(I20
I11
g1
(g5
S'\x00\x00\x00\x00\x00\x00E@'
p764
tp765
Rp766
I00
tp767
F0.0
s(I20
I8
g1
(g5
S'\x00\x00\x00\x00\x00\x00H@'
p768
tp769
Rp770
I01
tp771
F0.0
s(I20
I1
g1
(g5
S'\x00\x00\x00\x00\x00\x80V@'
p772
tp773
Rp774
I01
tp775
F100.0
s(I20
I6
g1
(g5
S'\x00\x00\x00\x00\x00\x00J@'
p776
tp777
Rp778
I00
tp779
F0.0
s(I20
I6
g1
(g5
S'\x00\x00\x00\x00\x00\x006@'
p780
tp781
Rp782
I01
tp783
F0.0
s(I20
I9
g1
(g5
S'\x00\x00\x00\x00\x00\x00<@'
p784
tp785
Rp786
I01
tp787
F0.0
s(I20
I9
g1
(g5
S'\x00\x00\x00\x00\x00\x00A@'
p788
tp789
Rp790
I00
tp791
F0.0
s(I20
I14
g1
(g5
S'\x00\x00\x00\x00\x00\x80X@'
p792
tp793
Rp794
I00
tp795
F0.0
s(I20
I14
g1
(g5
S'\x00\x00\x00\x00\x00\x00S@'
p796
tp797
Rp798
I01
tp799
F0.0
s(I20
I7
g1
(g5
S'\x00\x00\x00\x00\x00\x00E@'
p800
tp801
Rp802
I01
tp803
F0.0
s(I20
I4
g1
(g5
S'\x00\x00\x00\x00\x00\x00>@'
p804
tp805
Rp806
I01
tp807
F0.0
s(I20
I5
g1
(g5
S'\x00\x00\x00\x00\x00\x00I@'
p808
tp809
Rp810
I01
tp811
F0.0
s(I20
I5
g1
(g5
S'\x00\x00\x00\x00\x00\x00T@'
p812
tp813
Rp814
I00
tp815
F52.18390804597701
s(I20
I13
g1
(g5
S'\x00\x00\x00\x00\x00\x00$@'
p816
tp817
Rp818
I00
tp819
F0.0
s(I20
I2
g1
(g5
S'\x00\x00\x00\x00\x00\x00W@'
p820
tp821
Rp822
I01
tp823
F100.0
s(I20
I3
g1
(g5
S'\x00\x00\x00\x00\x00\x00$@'
p824
tp825
Rp826
I00
tp827
F0.0
s(I20
I1
g1
(g5
S'\x00\x00\x00\x00\x00\x002@'
p828
tp829
Rp830
I00
tp831
F3.8539553752535496
s(I20
I7
g1
(g5
S'\x00\x00\x00\x00\x00\x00P@'
p832
tp833
Rp834
I01
tp835
F0.0
s(I20
I7
g1
(g5
S'\x00\x00\x00\x00\x00\x80X@'
p836
tp837
Rp838
I00
tp839
F99.68897903989182
s(I20
I8
g1
(g5
S'\x00\x00\x00\x00\x00\x80S@'
p840
tp841
Rp842
I01
tp843
F0.0
s(I20
I4
g1
(g5
S'\x00\x00\x00\x00\x00\x80Q@'
p844
tp845
Rp846
I00
tp847
F42.02839756592292
s(I20
I12
g1
(g5
S'\x00\x00\x00\x00\x00\x80W@'
p848
tp849
Rp850
I01
tp851
F0.0
s(I20
I13
g1
(g5
S'\x00\x00\x00\x00\x00\x80X@'
p852
tp853
Rp854
I01
tp855
F0.0
s(I20
I2
g1
(g5
S'\x00\x00\x00\x00\x00\x00\x10@'
p856
tp857
Rp858
I00
tp859
F0.0
s(I20
I10
g1
(g5
S'\x00\x00\x00\x00\x00\x00M@'
p860
tp861
Rp862
I00
tp863
F0.0
s(I20
I10
g1
(g5
S'\x00\x00\x00\x00\x00\x00<@'
p864
tp865
Rp866
I01
tp867
F0.0
s(I20
I11
g1
(g5
S'\x00\x00\x00\x00\x00\x00D@'
p868
tp869
Rp870
I01
tp871
F0.0
s(I20
I8
g1
(g5
S'\x00\x00\x00\x00\x00\x00I@'
p872
tp873
Rp874
I00
tp875
F0.0
s(I20
I8
g1
(g5
S'\x00\x00\x00\x00\x00\x000@'
p876
tp877
Rp878
I01
tp879
F0.0
s(I20
I6
g1
(g5
S'\x00\x00\x00\x00\x00\x004@'
p880
tp881
Rp882
I00
tp883
F0.0
s(I20
I9
g1
(g5
S'\x00\x00\x00\x00\x00\x00N@'
p884
tp885
Rp886
I01
tp887
F0.0
s(I20
I9
g1
(g5
S'\x00\x00\x00\x00\x00\x80P@'
p888
tp889
Rp890
I00
tp891
F0.0
s(I20
I14
g1
(g5
S'\x00\x00\x00\x00\x00\x80P@'
p892
tp893
Rp894
I00
tp895
F0.0
s(I20
I14
g1
(g5
S'\x00\x00\x00\x00\x00\x00F@'
p896
tp897
Rp898
I01
tp899
F0.0
s(I20
I4
g1
(g5
S'\x00\x00\x00\x00\x00\x00@@'
p900
tp901
Rp902
I00
tp903
F0.0
s(I20
I12
g1
(g5
S'\x00\x00\x00\x00\x00\x00L@'
p904
tp905
Rp906
I01
tp907
F0.0
s(I20
I5
g1
(g5
S'\x00\x00\x00\x00\x00\x80T@'
p908
tp909
Rp910
I01
tp911
F66.68940427467031
s(I20
I13
g1
(g5
S'\x00\x00\x00\x00\x00\x00(@'
p912
tp913
Rp914
I01
tp915
F0.0
s(I20
I13
g1
(g5
S'\x00\x00\x00\x00\x00\x00E@'
p916
tp917
Rp918
I00
tp919
F0.0
s(I20
I2
g1
(g5
S'\x00\x00\x00\x00\x00\x80V@'
p920
tp921
Rp922
I00
tp923
F99.97295469912103
s(I20
I2
g1
(g5
S'\x00\x00\x00\x00\x00\x00N@'
p924
tp925
Rp926
I01
tp927
F75.98908594815825
s(I20
I10
g1
(g5
S'\x00\x00\x00\x00\x00\x80X@'
p928
tp929
Rp930
I01
tp931
F0.0
s(I20
I3
g1
(g5
S'\x00\x00\x00\x00\x00\x00 @'
p932
tp933
Rp934
I01
tp935
F0.0
s(I20
I3
g1
(g5
S'\x00\x00\x00\x00\x00\x00E@'
p936
tp937
Rp938
I00
tp939
F0.04056795131845842
s(I20
I11
g1
(g5
S'\x00\x00\x00\x00\x00\x80S@'
p940
tp941
Rp942
I01
tp943
F0.0
s(I20
I11
g1
(g5
S'\x00\x00\x00\x00\x00\x000@'
p944
tp945
Rp946
I00
tp947
F0.0
s(I20
I1
g1
(g5
S'\x00\x00\x00\x00\x00\x00<@'
p948
tp949
Rp950
I01
tp951
F38.33560709413369
s(I20
I1
g1
(g5
S'\x00\x00\x00\x00\x00\x00I@'
p952
tp953
Rp954
I00
tp955
F78.55307640297498
s(I20
I6
g1
(g5
S'\x00\x00\x00\x00\x00\x00S@'
p956
tp957
Rp958
I01
tp959
F0.25011368804001816
s(I20
I7
g1
(g5
S'\x00\x00\x00\x00\x00\x00X@'
p960
tp961
Rp962
I01
tp963
F93.13324238290132
s(I20
I7
g1
(g5
S'\x00\x00\x00\x00\x00\x00\x00@'
p964
tp965
Rp966
I00
tp967
F0.0
s(I20
I5
g1
(g5
S'\x00\x00\x00\x00\x00\x00$@'
p968
tp969
Rp970
I00
tp971
F0.0
s(I20
I8
g1
(g5
S'\x00\x00\x00\x00\x00\x00R@'
p972
tp973
Rp974
I00
tp975
F0.0
s(I20
I3
g1
(g5
S'\x00\x00\x00\x00\x00\x00P@'
p976
tp977
Rp978
I00
tp979
F56.835699797160245
s(I20
I12
g1
(g5
S'\x00\x00\x00\x00\x00\x00T@'
p980
tp981
Rp982
I00
tp983
F0.0
s(I20
I7
g1
(g5
S'\x00\x00\x00\x00\x00\x00V@'
p984
tp985
Rp986
I00
tp987
F4.313725490196078
s(I20
I10
g1
(g5
S'\x00\x00\x00\x00\x00\x00:@'
p988
tp989
Rp990
I00
tp991
F0.0
s(I20
I8
g1
(g5
S'\x00\x00\x00\x00\x00\x002@'
p992
tp993
Rp994
I00
tp995
F0.0
s(I20
I9
g1
(g5
S'\x00\x00\x00\x00\x00\x00W@'
p996
tp997
Rp998
I01
tp999
F0.0
s(I20
I9
g1
(g5
S'\x00\x00\x00\x00\x00\x80X@'
p1000
tp1001
Rp1002
I00
tp1003
F0.0
s(I20
I14
g1
(g5
S'\x00\x00\x00\x00\x00\x00A@'
p1004
tp1005
Rp1006
I00
tp1007
F0.0
s(I20
I14
g1
(g5
S'\x00\x00\x00\x00\x00\x00(@'
p1008
tp1009
Rp1010
I01
tp1011
F0.0
s(I20
I4
g1
(g5
S'\x00\x00\x00\x00\x00\x00\x00\x00'
p1012
tp1013
Rp1014
I00
tp1015
F0.0
s(I20
I4
g1
(g5
S'\x00\x00\x00\x00\x00\x80W@'
p1016
tp1017
Rp1018
I01
tp1019
F100.0
s(I20
I12
g1
(g5
S'\x00\x00\x00\x00\x00\x00M@'
p1020
tp1021
Rp1022
I00
tp1023
F0.0
s(I20
I12
g1
(g5
S'\x00\x00\x00\x00\x00\x008@'
p1024
tp1025
Rp1026
I01
tp1027
F0.0
s(I20
I13
g1
(g5
S'\x00\x00\x00\x00\x00\x00F@'
p1028
tp1029
Rp1030
I01
tp1031
F0.0
s(I20
I13
g1
(g5
S'\x00\x00\x00\x00\x00\x80R@'
p1032
tp1033
Rp1034
I00
tp1035
F0.0
s(I20
I2
g1
(g5
S'\x00\x00\x00\x00\x00\x00M@'
p1036
tp1037
Rp1038
I00
tp1039
F69.33062880324543
s(I20
I2
g1
(g5
S'\x00\x00\x00\x00\x00\x00<@'
p1040
tp1041
Rp1042
I01
tp1043
F0.022737608003638016
s(I20
I10
g1
(g5
S'\x00\x00\x00\x00\x00\x00X@'
p1044
tp1045
Rp1046
I00
tp1047
F0.0
s(I20
I10
g1
(g5
S'\x00\x00\x00\x00\x00\x80P@'
p1048
tp1049
Rp1050
I01
tp1051
F0.0
s(I20
I3
g1
(g5
S'\x00\x00\x00\x00\x00\x00D@'
p1052
tp1053
Rp1054
I01
tp1055
F0.022737608003638016
s(I20
I11
g1
(g5
S'\x00\x00\x00\x00\x00\x00H@'
p1056
tp1057
Rp1058
I00
tp1059
F0.0
s(I20
I1
g1
(g5
S'\x00\x00\x00\x00\x00\x00N@'
p1060
tp1061
Rp1062
I01
tp1063
F88.01728058208276
s(I20
I1
g1
(g5
S'\x00\x00\x00\x00\x00\x80T@'
p1064
tp1065
Rp1066
I00
tp1067
F99.41852603110209
s(I20
I6
g1
(g5
S'\x00\x00\x00\x00\x00\x80T@'
p1068
tp1069
Rp1070
I00
tp1071
F11.27789046653144
s(I20
I6
g1
(g5
S'\x00\x00\x00\x00\x00\x00F@'
p1072
tp1073
Rp1074
I01
tp1075
F0.0
s(I20
I9
g1
(g5
S'\x00\x00\x00\x00\x00\x00\x10@'
p1076
tp1077
Rp1078
I00
tp1079
F0.0
s(I20
I7
g1
(g5
S'\x00\x00\x00\x00\x00\x00\x00\x00'
p1080
tp1081
Rp1082
I01
tp1083
F0.0
s(I20
I7
g1
(g5
S'\x00\x00\x00\x00\x00\x00A@'
p1084
tp1085
Rp1086
I00
tp1087
F0.0
s(I20
I4
g1
(g5
S'\x00\x00\x00\x00\x00\x00L@'
p1088
tp1089
Rp1090
I01
tp1091
F0.5911778080945885
s(I20
I5
g1
(g5
S'\x00\x00\x00\x00\x00\x00(@'
p1092
tp1093
Rp1094
I01
tp1095
F0.0
s(I20
I5
g1
(g5
S'\x00\x00\x00\x00\x00\x00E@'
p1096
tp1097
Rp1098
I00
tp1099
F0.0
s(I20
I13
g1
(g5
S'\x00\x00\x00\x00\x00\x004@'
p1100
tp1101
Rp1102
I00
tp1103
F0.0
s(I20
I3
g1
(g5
S'\x00\x00\x00\x00\x00\x80S@'
p1104
tp1105
Rp1106
I01
tp1107
F89.97271487039563
s(I20
I3
g1
(g5
S'\x00\x00\x00\x00\x00\x00X@'
p1108
tp1109
Rp1110
I00
tp1111
F100.0
s(I20
I11
g1
(g5
S'\x00\x00\x00\x00\x00\x80U@'
p1112
tp1113
Rp1114
I00
tp1115
F0.0
s(I20
I7
g1
(g5
S'\x00\x00\x00\x00\x00\x80W@'
p1116
tp1117
Rp1118
I01
tp1119
F78.44474761255115
s(I20
I8
g1
(g5
S'\x00\x00\x00\x00\x00\x00T@'
p1120
tp1121
Rp1122
I01
tp1123
F0.0
s(I20
I14
g1
(g5
S'\x00\x00\x00\x00\x00\x00\x00@'
p1124
tp1125
Rp1126
I00
tp1127
F0.0
s(I20
I4
g1
(g5
S'\x00\x00\x00\x00\x00\x00X@'
p1128
tp1129
Rp1130
I00
tp1131
F100.0
s(I20
I12
g1
(g5
S'\x00\x00\x00\x00\x00\x00:@'
p1132
tp1133
Rp1134
I00
tp1135
F0.0
s(I20
I13
g1
(g5
S'\x00\x00\x00\x00\x00\x00S@'
p1136
tp1137
Rp1138
I01
tp1139
F0.0
s(I20
I2
g1
(g5
S'\x00\x00\x00\x00\x00\x00:@'
p1140
tp1141
Rp1142
I00
tp1143
F0.0
s(I20
I10
g1
(g5
S'\x00\x00\x00\x00\x00\x00P@'
p1144
tp1145
Rp1146
I00
tp1147
F0.0
s(I20
I10
g1
(g5
S'\x00\x00\x00\x00\x00\x00A@'
p1148
tp1149
Rp1150
I01
tp1151
F0.0
s(I20
I11
g1
(g5
S'\x00\x00\x00\x00\x00\x00,@'
p1152
tp1153
Rp1154
I01
tp1155
F0.0
s(I20
I8
g1
(g5
S'\x00\x00\x00\x00\x00\x00M@'
p1156
tp1157
Rp1158
I01
tp1159
F0.0
s(I20
I1
g1
(g5
S'\x00\x00\x00\x00\x00\x00W@'
p1160
tp1161
Rp1162
I01
tp1163
F100.0
s(I20
I6
g1
(g5
S'\x00\x00\x00\x00\x00\x00I@'
p1164
tp1165
Rp1166
I00
tp1167
F0.0
s(I20
I6
g1
(g5
S'\x00\x00\x00\x00\x00\x00(@'
p1168
tp1169
Rp1170
I01
tp1171
F0.0
s(I20
I9
g1
(g5
S'\x00\x00\x00\x00\x00\x00\x18@'
p1172
tp1173
Rp1174
I01
tp1175
F0.0
s(I20
I9
g1
(g5
S'\x00\x00\x00\x00\x00\x00B@'
p1176
tp1177
Rp1178
I00
tp1179
F0.0
s(I20
I14
g1
(g5
S'\x00\x00\x00\x00\x00\x80R@'
p1180
tp1181
Rp1182
I01
tp1183
F0.0
s(I20
I7
g1
(g5
S'\x00\x00\x00\x00\x00\x00@@'
p1184
tp1185
Rp1186
I01
tp1187
F0.0
s(I20
I4
g1
(g5
S'\x00\x00\x00\x00\x00\x00M@'
p1188
tp1189
Rp1190
I00
tp1191
F1.1359026369168357
s(I20
I4
g1
(g5
S'\x00\x00\x00\x00\x00\x008@'
p1192
tp1193
Rp1194
I01
tp1195
F0.0
s(I20
I5
g1
(g5
S'\x00\x00\x00\x00\x00\x00F@'
p1196
tp1197
Rp1198
I01
tp1199
F0.0
s(I20
I5
g1
(g5
S'\x00\x00\x00\x00\x00\x80R@'
p1200
tp1201
Rp1202
I00
tp1203
F13.739012846517918
s(I20
I13
g1
(g5
S'\x00\x00\x00\x00\x00\x006@'
p1204
tp1205
Rp1206
I01
tp1207
F0.0
s(I20
I13
g1
(g5
S'\x00\x00\x00\x00\x00\x00J@'
p1208
tp1209
Rp1210
I00
tp1211
F0.0
s(I20
I2
g1
(g5
S'\x00\x00\x00\x00\x00\x80T@'
p1212
tp1213
Rp1214
I01
tp1215
F98.09004092769442
s(I20
I3
g1
(g5
S'\x00\x00\x00\x00\x00\x00\x00\x00'
p1216
tp1217
Rp1218
I00
tp1219
F0.0
s(I20
I11
g1
(g5
S'\x00\x00\x00\x00\x00\x00U@'
p1220
tp1221
Rp1222
I01
tp1223
F0.0
s(I20
I1
g1
(g5
S'\x00\x00\x00\x00\x00\x004@'
p1224
tp1225
Rp1226
I00
tp1227
F10.953346855983773
s(I20
I7
g1
(g5
S'\x00\x00\x00\x00\x00\x008@'
p1228
tp1229
Rp1230
I00
tp1231
F0.0
s(I20
I8
g1
(g5
S'\x00\x00\x00\x00\x00\x80T@'
p1232
tp1233
Rp1234
I00
tp1235
F0.0
s(I20
I4
g1
(g5
S'\x00\x00\x00\x00\x00\x00P@'
p1236
tp1237
Rp1238
I00
tp1239
F14.50980392156863
s(I20
I12
g1
(g5
S'\x00\x00\x00\x00\x00\x00V@'
p1240
tp1241
Rp1242
I01
tp1243
F0.0
s(I20
I10
g1
(g5
S'\x00\x00\x00\x00\x00\x00@@'
p1244
tp1245
Rp1246
I00
tp1247
F0.0
s(I20
I10
g1
(g5
S'\x00\x00\x00\x00\x00\x00\x00@'
p1248
tp1249
Rp1250
I01
tp1251
F0.0
s(I20
I11
g1
(g5
S'\x00\x00\x00\x00\x00\x00G@'
p1252
tp1253
Rp1254
I01
tp1255
F0.0
s(I20
I8
g1
(g5
S'\x00\x00\x00\x00\x00\x00J@'
p1256
tp1257
Rp1258
I00
tp1259
F0.0
s(I20
I8
g1
(g5
S'\x00\x00\x00\x00\x00\x00:@'
p1260
tp1261
Rp1262
I01
tp1263
F0.0
s(I20
I6
g1
(g5
S'\x00\x00\x00\x00\x00\x002@'
p1264
tp1265
Rp1266
I00
tp1267
F0.0
s(I20
I9
g1
(g5
S'\x00\x00\x00\x00\x00\x00C@'
p1268
tp1269
Rp1270
I01
tp1271
F0.0
s(I20
I9
g1
(g5
S'\x00\x00\x00\x00\x00\x00Q@'
p1272
tp1273
Rp1274
I00
tp1275
F0.0
s(I20
I14
g1
(g5
S'\x00\x00\x00\x00\x00\x00R@'
p1276
tp1277
Rp1278
I00
tp1279
F0.0
s(I20
I14
g1
(g5
S'\x00\x00\x00\x00\x00\x00E@'
p1280
tp1281
Rp1282
I01
tp1283
F0.0
s(I20
I4
g1
(g5
S'\x00\x00\x00\x00\x00\x00:@'
p1284
tp1285
Rp1286
I00
tp1287
F0.0
s(I20
I12
g1
(g5
S'\x00\x00\x00\x00\x00\x00A@'
p1288
tp1289
Rp1290
I01
tp1291
F0.0
s(I20
I5
g1
(g5
S'\x00\x00\x00\x00\x00\x00S@'
p1292
tp1293
Rp1294
I01
tp1295
F29.24056389267849
s(I20
I13
g1
(g5
S'\x00\x00\x00\x00\x00\x00K@'
p1296
tp1297
Rp1298
I01
tp1299
F0.0
s(I20
I13
g1
(g5
S'\x00\x00\x00\x00\x00\x00U@'
p1300
tp1301
Rp1302
I00
tp1303
F0.0
s(I20
I2
g1
(g5
S'\x00\x00\x00\x00\x00\x00T@'
p1304
tp1305
Rp1306
I00
tp1307
F95.45638945233266
s(I20
I2
g1
(g5
S'\x00\x00\x00\x00\x00\x00I@'
p1308
tp1309
Rp1310
I01
tp1311
F53.660754888585714
s(I20
I3
g1
(g5
S'\x00\x00\x00\x00\x00\x00,@'
p1312
tp1313
Rp1314
I01
tp1315
F0.0
s(I20
I3
g1
(g5
S'\x00\x00\x00\x00\x00\x00@@'
p1316
tp1317
Rp1318
I00
tp1319
F0.0
s(I20
I11
g1
(g5
S'\x00\x00\x00\x00\x00\x006@'
p1320
tp1321
Rp1322
I00
tp1323
F0.0
s(I20
I1
g1
(g5
S'\x00\x00\x00\x00\x00\x006@'
p1324
tp1325
Rp1326
I01
tp1327
F21.077762619372443
s(I20
I1
g1
(g5
S'\x00\x00\x00\x00\x00\x00J@'
p1328
tp1329
Rp1330
I00
tp1331
F80.74374577417174
s(I20
I6
g1
(g5
S'\x00\x00\x00\x00\x00\x80R@'
p1332
tp1333
Rp1334
I01
tp1335
F0.0
s(I20
I7
g1
(g5
S'\x00\x00\x00\x00\x00\x00>@'
p1336
tp1337
Rp1338
I01
tp1339
F0.0
s(I20
I7
g1
(g5
S'\x00\x00\x00\x00\x00\x00L@'
p1340
tp1341
Rp1342
I00
tp1343
F0.0
s(I20
I5
g1
(g5
S'\x00\x00\x00\x00\x00\x00\x10@'
p1344
tp1345
Rp1346
I00
tp1347
F0.0
s(I20
I3
g1
(g5
S'\x00\x00\x00\x00\x00\x80Q@'
p1348
tp1349
Rp1350
I00
tp1351
F73.86071670047329
s(I20
I12
g1
(g5
S'\x00\x00\x00\x00\x00\x80V@'
p1352
tp1353
Rp1354
I00
tp1355
F0.0
s(I20
I7
g1
(g5
S'\x00\x00\x00\x00\x00\x80U@'
p1356
tp1357
Rp1358
I00
tp1359
F0.4192021636240703
s(I20
I10
g1
(g5
S'\x00\x00\x00\x00\x00\x00\x00\x00'
p1360
tp1361
Rp1362
I00
tp1363
F0.0
s(I20
I8
g1
(g5
S'\x00\x00\x00\x00\x00\x004@'
p1364
tp1365
Rp1366
I00
tp1367
F0.0
s(I20
I9
g1
(g5
S'\x00\x00\x00\x00\x00\x80Q@'
p1368
tp1369
Rp1370
I01
tp1371
F0.0
s(I20
I14
g1
(g5
S'\x00\x00\x00\x00\x00\x00D@'
p1372
tp1373
Rp1374
I00
tp1375
F0.0
s(I20
I14
g1
(g5
S'\x00\x00\x00\x00\x00\x00$@'
p1376
tp1377
Rp1378
I01
tp1379
F0.0
s(I20
I4
g1
(g5
S'\x00\x00\x00\x00\x00\x00V@'
p1380
tp1381
Rp1382
I01
tp1383
F96.40745793542519
s(I20
I12
g1
(g5
S'\x00\x00\x00\x00\x00\x00B@'
p1384
tp1385
Rp1386
I00
tp1387
F0.0
s(I20
I12
g1
(g5
S'\x00\x00\x00\x00\x00\x00\x00@'
p1388
tp1389
Rp1390
I01
tp1391
F0.0
s(I20
I13
g1
(g5
S'\x00\x00\x00\x00\x00\x80U@'
p1392
tp1393
Rp1394
I01
tp1395
F0.0
s(I20
I2
g1
(g5
S'\x00\x00\x00\x00\x00\x00H@'
p1396
tp1397
Rp1398
I00
tp1399
F42.51521298174442
s(I20
I2
g1
(g5
S'\x00\x00\x00\x00\x00\x002@'
p1400
tp1401
Rp1402
I01
tp1403
F0.0
s(I20
I10
g1
(g5
S'\x00\x00\x00\x00\x00\x00R@'
p1404
tp1405
Rp1406
I01
tp1407
F0.0
s(I20
I3
g1
(g5
S'\x00\x00\x00\x00\x00\x00G@'
p1408
tp1409
Rp1410
I01
tp1411
F2.432924056389268
s(I20
I11
g1
(g5
S'\x00\x00\x00\x00\x00\x004@'
p1412
tp1413
Rp1414
I01
tp1415
F0.0
s(I20
I11
g1
(g5
S'\x00\x00\x00\x00\x00\x00K@'
p1416
tp1417
Rp1418
I00
tp1419
F0.0
s(I20
I1
g1
(g5
S'\x00\x00\x00\x00\x00\x00K@'
p1420
tp1421
Rp1422
I01
tp1423
F83.12869486130059
s(I20
I1
g1
(g5
S'\x00\x00\x00\x00\x00\x00U@'
p1424
tp1425
Rp1426
I00
tp1427
F99.77011494252874
s(I20
I6
g1
(g5
S'\x00\x00\x00\x00\x00\x00R@'
p1428
tp1429
Rp1430
I00
tp1431
F0.0
s(I20
I6
g1
(g5
S'\x00\x00\x00\x00\x00\x00E@'
p1432
tp1433
Rp1434
I01
tp1435
F0.0
s(I20
I9
g1
(g5
S'\x00\x00\x00\x00\x00\x00,@'
p1436
tp1437
Rp1438
I00
tp1439
F0.0
s(I20
I14
g1
(g5
S'\x00\x00\x00\x00\x00\x00T@'
p1440
tp1441
Rp1442
I01
tp1443
F0.0
s(I20
I7
g1
(g5
S'\x00\x00\x00\x00\x00\x00O@'
p1444
tp1445
Rp1446
I01
tp1447
F0.0
s(I20
I4
g1
(g5
S'\x00\x00\x00\x00\x00\x00I@'
p1448
tp1449
Rp1450
I01
tp1451
F0.0
s(I20
I5
g1
(g5
S'\x00\x00\x00\x00\x00\x00\x18@'
p1452
tp1453
Rp1454
I01
tp1455
F0.0
s(I20
I5
g1
(g5
S'\x00\x00\x00\x00\x00\x00B@'
p1456
tp1457
Rp1458
I00
tp1459
F0.0
s(I20
I13
g1
(g5
S'\x00\x00\x00\x00\x00\x00>@'
p1460
tp1461
Rp1462
I00
tp1463
F0.0
s(I20
I3
g1
(g5
S'\x00\x00\x00\x00\x00\x00Q@'
p1464
tp1465
Rp1466
I01
tp1467
F73.07867212369258
s(I20
I11
g1
(g5
S'\x00\x00\x00\x00\x00\x00W@'
p1468
tp1469
Rp1470
I00
tp1471
F0.0
s(I20
I7
g1
(g5
S'\x00\x00\x00\x00\x00\x00U@'
p1472
tp1473
Rp1474
I01
tp1475
F0.022737608003638016
s(I20
I8
g1
(g5
S'\x00\x00\x00\x00\x00\x80V@'
p1476
tp1477
Rp1478
I01
tp1479
F0.0
s(I20
I14
g1
(g5
S'\x00\x00\x00\x00\x00\x00 @'
p1480
tp1481
Rp1482
I00
tp1483
F0.0
s(I20
I4
g1
(g5
S'\x00\x00\x00\x00\x00\x80V@'
p1484
tp1485
Rp1486
I00
tp1487
F97.80933062880325
s(I20
I12
g1
(g5
S'\x00\x00\x00\x00\x00\x00\x10@'
p1488
tp1489
Rp1490
I00
tp1491
F0.0
s(I20
I12
g1
(g5
S'\x00\x00\x00\x00\x00\x80X@'
p1492
tp1493
Rp1494
I01
tp1495
F0.0
s(I20
I2
g1
(g5
S'\x00\x00\x00\x00\x00\x000@'
p1496
tp1497
Rp1498
I00
tp1499
F0.0
s(I20
I10
g1
(g5
S'\x00\x00\x00\x00\x00\x80Q@'
p1500
tp1501
Rp1502
I00
tp1503
F0.0
s(I20
I10
g1
(g5
S'\x00\x00\x00\x00\x00\x00D@'
p1504
tp1505
Rp1506
I01
tp1507
F0.0
s(I20
I11
g1
(g5
S'\x00\x00\x00\x00\x00\x00J@'
p1508
tp1509
Rp1510
I01
tp1511
F0.0
s(I20
I8
g1
(g5
S'\x00\x00\x00\x00\x00\x00N@'
p1512
tp1513
Rp1514
I01
tp1515
F0.0
s(I20
I1
g1
(g5
S'\x00\x00\x00\x00\x00\x80U@'
p1516
tp1517
Rp1518
I01
tp1519
F100.0
s(I20
I6
g1
(g5
S'\x00\x00\x00\x00\x00\x00D@'
p1520
tp1521
Rp1522
I00
tp1523
F0.0
s(I20
I6
g1
(g5
S'\x00\x00\x00\x00\x00\x00$@'
p1524
tp1525
Rp1526
I01
tp1527
F0.0
s(I20
I9
g1
(g5
S'\x00\x00\x00\x00\x00\x00 @'
p1528
tp1529
Rp1530
I01
tp1531
F0.0
s(I20
I9
g1
(g5
S'\x00\x00\x00\x00\x00\x00G@'
p1532
tp1533
Rp1534
I00
tp1535
F0.0
s(I20
I14
g1
(g5
S'\x00\x00\x00\x00\x00\x80U@'
p1536
tp1537
Rp1538
I00
tp1539
F0.0
s(I20
I14
g1
(g5
S'\x00\x00\x00\x00\x00\x00H@'
p1540
tp1541
Rp1542
I01
tp1543
F0.0
s(I20
I4
g1
(g5
S'\x00\x00\x00\x00\x00\x00J@'
p1544
tp1545
Rp1546
I00
tp1547
F0.0
s(I20
I4
g1
(g5
S'\x00\x00\x00\x00\x00\x002@'
p1548
tp1549
Rp1550
I01
tp1551
F0.0
s(I20
I5
g1
(g5
S'\x00\x00\x00\x00\x00\x00C@'
p1552
tp1553
Rp1554
I01
tp1555
F0.0
s(I20
I5
g1
(g5
S'\x00\x00\x00\x00\x00\x00Q@'
p1556
tp1557
Rp1558
I00
tp1559
F0.5679513184584178
s(I20
I13
g1
(g5
S'\x00\x00\x00\x00\x00\x000@'
p1560
tp1561
Rp1562
I01
tp1563
F0.0
s(I20
I13
g1
(g5
S'\x00\x00\x00\x00\x00\x00O@'
p1564
tp1565
Rp1566
I00
tp1567
F0.0
s(I20
I2
g1
(g5
S'\x00\x00\x00\x00\x00\x00R@'
p1568
tp1569
Rp1570
I01
tp1571
F90.74579354251932
s(I20
I3
g1
(g5
S'\x00\x00\x00\x00\x00\x00\x18@'
p1572
tp1573
Rp1574
I00
tp1575
F0.0
s(I20
I11
g1
(g5
S'\x00\x00\x00\x00\x00\x80V@'
p1576
tp1577
Rp1578
I01
tp1579
F0.0
s(I20
I1
g1
(g5
S'\x00\x00\x00\x00\x00\x00,@'
p1580
tp1581
Rp1582
I00
tp1583
F0.0
s(I20
I6
g1
(g5
S'\x00\x00\x00\x00\x00\x00X@'
p1584
tp1585
Rp1586
I01
tp1587
F99.29513415188723
s(I20
I7
g1
(g5
S'\x00\x00\x00\x00\x00\x006@'
p1588
tp1589
Rp1590
I00
tp1591
F0.0
s(I20
I5
g1
(g5
S'\x00\x00\x00\x00\x00\x00>@'
p1592
tp1593
Rp1594
I00
tp1595
F0.0
s(I20
I8
g1
(g5
S'\x00\x00\x00\x00\x00\x00U@'
p1596
tp1597
Rp1598
I00
tp1599
F0.0
s(I20
I3
g1
(g5
S'\x00\x00\x00\x00\x00\x00W@'
p1600
tp1601
Rp1602
I00
tp1603
F99.97295469912103
s(I20
I12
g1
(g5
S'\x00\x00\x00\x00\x00\x80P@'
p1604
tp1605
Rp1606
I01
tp1607
F0.0
s(I20
I10
g1
(g5
S'\x00\x00\x00\x00\x00\x00C@'
p1608
tp1609
Rp1610
I00
tp1611
F0.0
s(I20
I10
g1
(g5
S'\x00\x00\x00\x00\x00\x00 @'
p1612
tp1613
Rp1614
I01
tp1615
F0.0
s(I20
I8
g1
(g5
S'\x00\x00\x00\x00\x00\x00O@'
p1616
tp1617
Rp1618
I00
tp1619
F0.0
s(I20
I8
g1
(g5
S'\x00\x00\x00\x00\x00\x00<@'
p1620
tp1621
Rp1622
I01
tp1623
F0.0
s(I20
I6
g1
(g5
S'\x00\x00\x00\x00\x00\x00 @'
p1624
tp1625
Rp1626
I00
tp1627
F0.0
s(I20
I9
g1
(g5
S'\x00\x00\x00\x00\x00\x00D@'
p1628
tp1629
Rp1630
I01
tp1631
F0.0
s(I20
I9
g1
(g5
S'\x00\x00\x00\x00\x00\x80S@'
p1632
tp1633
Rp1634
I00
tp1635
F0.0
s(I20
I14
g1
(g5
S'\x00\x00\x00\x00\x00\x00K@'
p1636
tp1637
Rp1638
I00
tp1639
F0.0
s(I20
I14
g1
(g5
S'\x00\x00\x00\x00\x00\x000@'
p1640
tp1641
Rp1642
I01
tp1643
F0.0
s(I20
I4
g1
(g5
S'\x00\x00\x00\x00\x00\x004@'
p1644
tp1645
Rp1646
I00
tp1647
F0.0
s(I20
I12
g14
I01
tp1648
F0.0
s(I20
I5
g1
(g5
S'\x00\x00\x00\x00\x00\x80Q@'
p1649
tp1650
Rp1651
I01
tp1652
F4.0018190086402905
s(I20
I13
g1
(g5
S'\x00\x00\x00\x00\x00\x00H@'
p1653
tp1654
Rp1655
I01
tp1656
F0.0
s(I20
I13
g22
I00
tp1657
F0.0
s(I20
I2
g1
(g5
S'\x00\x00\x00\x00\x00\x80U@'
p1658
tp1659
Rp1660
I00
tp1661
F99.41852603110209
s(I20
I2
g26
I01
tp1662
F25.397908140063663
s(I20
I3
g1
(g5
S'\x00\x00\x00\x00\x00\x00\x10@'
p1663
tp1664
Rp1665
I01
tp1666
F0.0
s(I20
I3
g38
I00
tp1667
F0.0
s(I20
I11
g42
I00
tp1668
F0.0
s(I20
I1
g1
(g5
S'\x00\x00\x00\x00\x00\x00 @'
p1669
tp1670
Rp1671
I01
tp1672
F0.0
s(I20
I1
g50
I00
tp1673
F73.40094658553078
s(I20
I6
g58
I01
tp1674
F0.0
s(I20
I9
g66
I00
tp1675
F0.0
s(I20
I7
g1
(g5
S'\x00\x00\x00\x00\x00\x004@'
p1676
tp1677
Rp1678
I01
tp1679
F0.0
s(I20
I7
g78
I00
tp1680
F0.0
s(I20
I5
g86
I00
tp1681
F0.0
s(I20
I3
g1
(g5
S'\x00\x00\x00\x00\x00\x80V@'
p1682
tp1683
Rp1684
I01
tp1685
F99.77262391996362
s(I20
I12
g1
(g5
S'\x00\x00\x00\x00\x00\x00Q@'
p1686
tp1687
Rp1688
I00
tp1689
F0.0
s(I20
I7
g110
I00
tp1690
F0.0
s(I20
I10
g1
(g5
S'\x00\x00\x00\x00\x00\x00\x18@'
p1691
tp1692
Rp1693
I00
tp1694
F0.0
s(I20
I8
g1
(g5
S'\x00\x00\x00\x00\x00\x00>@'
p1695
tp1696
Rp1697
I00
tp1698
F0.0
s(I20
I9
g1
(g5
S'\x00\x00\x00\x00\x00\x00R@'
p1699
tp1700
Rp1701
I01
tp1702
F0.0
s(I20
I14
g1
(g5
S'\x00\x00\x00\x00\x00\x006@'
p1703
tp1704
Rp1705
I00
tp1706
F0.0
s(I20
I4
g118
I01
tp1707
F87.83537971805366
s(I20
I12
g1
(g5
S'\x00\x00\x00\x00\x00\x00G@'
p1708
tp1709
Rp1710
I00
tp1711
F0.0
s(I20
I12
g122
I01
tp1712
F0.0
s(I20
I13
g1
(g5
S'\x00\x00\x00\x00\x00\x00T@'
p1713
tp1714
Rp1715
I01
tp1716
F0.0
s(I20
I2
g1
(g5
S'\x00\x00\x00\x00\x00\x00K@'
p1717
tp1718
Rp1719
I00
tp1720
F59.71602434077079
s(I20
I2
g126
I01
tp1721
F0.0
s(I20
I10
g130
I01
tp1722
F0.0
s(I20
I3
g1
(g5
S'\x00\x00\x00\x00\x00\x00B@'
p1723
tp1724
Rp1725
I01
tp1726
F0.0
s(I20
I11
g1
(g5
S'\x00\x00\x00\x00\x00\x00:@'
p1727
tp1728
Rp1729
I01
tp1730
F0.0
s(I20
I11
g138
I00
tp1731
F0.0
s(I20
I1
g1
(g5
S'\x00\x00\x00\x00\x00\x00D@'
p1732
tp1733
Rp1734
I01
tp1735
F63.18781264211005
s(I20
I1
g146
I00
tp1736
F98.01217038539554
s(I20
I6
g1
(g5
S'\x00\x00\x00\x00\x00\x80Q@'
p1737
tp1738
Rp1739
I00
tp1740
F0.0
s(I20
I6
g150
I01
tp1741
F0.0
s(I20
I9
g1
(g5
S'\x00\x00\x00\x00\x00\x002@'
p1742
tp1743
Rp1744
I01
tp1745
F0.0
s(I20
I9
g158
I00
tp1746
F0.0
s(I20
I14
g166
I01
tp1747
F0.0
s(I20
I7
g1
(g5
S'\x00\x00\x00\x00\x00\x00J@'
p1748
tp1749
Rp1750
I01
tp1751
F0.0
s(I20
I4
g174
I01
tp1752
F0.0
s(I20
I5
g1
(g5
S'\x00\x00\x00\x00\x00\x00\x00\x00'
p1753
tp1754
Rp1755
I01
tp1756
F0.0
s(I20
I5
g186
I00
tp1757
F98.95875591615957
s(I20
I13
g190
I00
tp1758
F0.0
s(I20
I3
g202
I00
tp1759
F0.0
s(I20
I11
g210
I00
tp1760
F0.0
s(I20
I7
g1
(g5
S'\x00\x00\x00\x00\x00\x80T@'
p1761
tp1762
Rp1763
I01
tp1764
F0.0
s(I20
I8
g230
I01
tp1765
F0.0
s(I20
I4
g1
(g5
S'\x00\x00\x00\x00\x00\x00U@'
p1766
tp1767
Rp1768
I00
tp1769
F88.23529411764706
s(I20
I12
g1
(g5
S'\x00\x00\x00\x00\x00\x00,@'
p1770
tp1771
Rp1772
I00
tp1773
F0.0
s(I20
I2
g1
(g5
S'\x00\x00\x00\x00\x00\x006@'
p1774
tp1775
Rp1776
I00
tp1777
F0.0
s(I20
I10
g1
(g5
S'\x00\x00\x00\x00\x00\x00S@'
p1778
tp1779
Rp1780
I00
tp1781
F0.0
s(I20
I10
g242
I01
tp1782
F0.0
s(I20
I11
g1
(g5
S'\x00\x00\x00\x00\x00\x00M@'
p1783
tp1784
Rp1785
I01
tp1786
F0.0
s(I20
I8
g246
I01
tp1787
F0.0
s(I20
I1
g1
(g5
S'\x00\x00\x00\x00\x00\x00R@'
p1788
tp1789
Rp1790
I01
tp1791
F95.7480673033197
s(I20
I6
g1
(g5
S'\x00\x00\x00\x00\x00\x00C@'
p1792
tp1793
Rp1794
I00
tp1795
F0.0
s(I20
I6
g254
I01
tp1796
F0.0
s(I20
I9
g1
(g5
S'\x00\x00\x00\x00\x00\x00I@'
p1797
tp1798
Rp1799
I01
tp1800
F0.0
s(I20
I9
g258
I00
tp1801
F0.0
s(I20
I14
g1
(g5
S'\x00\x00\x00\x00\x00\x00W@'
p1802
tp1803
Rp1804
I00
tp1805
F0.0
s(I20
I14
g262
I01
tp1806
F0.0
s(I20
I4
g1
(g5
S'\x00\x00\x00\x00\x00\x00G@'
p1807
tp1808
Rp1809
I00
tp1810
F0.0
s(I20
I4
g270
I01
tp1811
F0.0
s(I20
I12
g274
I01
tp1812
F0.0
s(I20
I5
g1
(g5
S'\x00\x00\x00\x00\x00\x00@@'
p1813
tp1814
Rp1815
I01
tp1816
F0.0
s(I20
I13
g1
(g5
S'\x00\x00\x00\x00\x00\x00:@'
p1817
tp1818
Rp1819
I01
tp1820
F0.0
s(I20
I13
g282
I00
tp1821
F0.0
s(I20
I2
g290
I01
tp1822
F95.4524783992724
s(I20
I3
g1
(g5
S'\x00\x00\x00\x00\x00\x00:@'
p1823
tp1824
Rp1825
I01
tp1826
F0.0
s(I20
I3
g302
I00
tp1827
F42.46112237998648
s(I20
I11
g1
(g5
S'\x00\x00\x00\x00\x00\x00P@'
p1828
tp1829
Rp1830
I01
tp1831
F0.0
s(I20
I11
g306
I00
tp1832
F0.0
s(I20
I1
g314
I00
tp1833
F0.0
s(I20
I6
g322
I01
tp1834
F95.47521600727603
s(I20
I7
g334
I00
tp1835
F0.0
s(I20
I5
g342
I00
tp1836
F0.0
s(I20
I8
g1
(g5
S'\x00\x00\x00\x00\x00\x80W@'
p1837
tp1838
Rp1839
I00
tp1840
F1.5821501014198782
s(I20
I3
g350
I00
tp1841
F92.69776876267748
s(I20
I12
g354
I01
tp1842
F0.0
s(I20
I10
g1
(g5
S'\x00\x00\x00\x00\x00\x00F@'
p1843
tp1844
Rp1845
I00
tp1846
F0.0
s(I20
I10
g362
I01
tp1847
F0.0
s(I20
I8
g1
(g5
S'\x00\x00\x00\x00\x00\x00@@'
p1848
tp1849
Rp1850
I00
tp1851
F0.0
s(I20
I8
g366
I01
tp1852
F0.0
s(I20
I6
g1
(g5
S'\x00\x00\x00\x00\x00\x00\x18@'
p1853
tp1854
Rp1855
I00
tp1856
F0.0
s(I20
I9
g1
(g5
S'\x00\x00\x00\x00\x00\x80T@'
p1857
tp1858
Rp1859
I01
tp1860
F0.0
s(I20
I14
g1
(g5
S'\x00\x00\x00\x00\x00\x00N@'
p1861
tp1862
Rp1863
I00
tp1864
F0.0
s(I20
I14
g370
I01
tp1865
F0.0
s(I20
I4
g1
(g5
S'\x00\x00\x00\x00\x00\x00,@'
p1866
tp1867
Rp1868
I00
tp1869
F0.0
s(I20
I12
g378
I01
tp1870
F0.0
s(I20
I5
g1
(g5
S'\x00\x00\x00\x00\x00\x00P@'
p1871
tp1872
Rp1873
I01
tp1874
F0.04547521600727603
s(I20
I13
g1
(g5
S'\x00\x00\x00\x00\x00\x00M@'
p1875
tp1876
Rp1877
I01
tp1878
F0.0
s(I20
I13
g382
I00
tp1879
F0.0
s(I20
I2
g1
(g5
S'\x00\x00\x00\x00\x00\x00S@'
p1880
tp1881
Rp1882
I00
tp1883
F91.92697768762677
s(I20
I2
g386
I01
tp1884
F43.06502955889041
s(I20
I10
g394
I01
tp1885
F0.0
s(I20
I3
g1
(g5
S'\x00\x00\x00\x00\x00\x00M@'
p1886
tp1887
Rp1888
I01
tp1889
F41.79172351068667
s(I20
I11
g1
(g5
S'\x00\x00\x00\x00\x00\x00X@'
p1890
tp1891
Rp1892
I01
tp1893
F0.0
s(I20
I11
g402
I00
tp1894
F0.0
s(I20
I1
g1
(g5
S'\x00\x00\x00\x00\x00\x00\x00@'
p1895
tp1896
Rp1897
I01
tp1898
F0.0
s(I20
I1
g410
I00
tp1899
F43.20486815415821
s(I20
I6
g1
(g5
S'\x00\x00\x00\x00\x00\x00W@'
p1900
tp1901
Rp1902
I00
tp1903
F87.8025693035835
s(I20
I6
g418
I01
tp1904
F0.0
s(I20
I9
g426
I00
tp1905
F0.0
s(I20
I7
g1
(g5
S'\x00\x00\x00\x00\x00\x002@'
p1906
tp1907
Rp1908
I01
tp1909
F0.0
s(I20
I7
g438
I00
tp1910
F0.0
s(I20
I5
g1
(g5
S'\x00\x00\x00\x00\x00\x00:@'
p1911
tp1912
Rp1913
I01
tp1914
F0.0
s(I20
I5
g446
I00
tp1915
F0.0
s(I20
I3
g1
(g5
S'\x00\x00\x00\x00\x00\x00T@'
p1916
tp1917
Rp1918
I01
tp1919
F92.2237380627558
s(I20
I12
g1
(g5
S'\x00\x00\x00\x00\x00\x80S@'
p1920
tp1921
Rp1922
I00
tp1923
F0.0
s(I20
I7
g470
I00
tp1924
F0.0
s(I20
I10
g1
(g5
S'\x00\x00\x00\x00\x00\x00(@'
p1925
tp1926
Rp1927
I00
tp1928
F0.0
s(I20
I8
g1
(g5
S'\x00\x00\x00\x00\x00\x00\x00\x00'
p1929
tp1930
Rp1931
I00
tp1932
F0.0
s(I20
I14
g1
(g5
S'\x00\x00\x00\x00\x00\x00<@'
p1933
tp1934
Rp1935
I00
tp1936
F0.0
s(I20
I4
g478
I01
tp1937
F72.53296953160527
s(I20
I12
g1
(g5
S'\x00\x00\x00\x00\x00\x00D@'
p1938
tp1939
Rp1940
I00
tp1941
F0.0
s(I20
I5
g1
(g5
S'\x00\x00\x00\x00\x00\x00X@'
p1942
tp1943
Rp1944
I01
tp1945
F100.0
s(I20
I13
g1
(g5
S'\x00\x00\x00\x00\x00\x80V@'
p1946
tp1947
Rp1948
I01
tp1949
F0.0
s(I20
I2
g1
(g5
S'\x00\x00\x00\x00\x00\x00F@'
p1950
tp1951
Rp1952
I00
tp1953
F32.1027721433401
s(I20
I2
g486
I01
tp1954
F0.0
s(I20
I10
g1
(g5
S'\x00\x00\x00\x00\x00\x80T@'
p1955
tp1956
Rp1957
I00
tp1958
F0.0
s(I20
I10
g490
I01
tp1959
F0.0
s(I20
I11
g1
(g5
S'\x00\x00\x00\x00\x00\x00\x00\x00'
p1960
tp1961
Rp1962
I01
tp1963
F0.0
s(I20
I11
g498
I00
tp1964
F0.0
s(I20
I1
g1
(g5
S'\x00\x00\x00\x00\x00\x00A@'
p1965
tp1966
Rp1967
I01
tp1968
F50.93224192814916
s(I20
I1
g506
I00
tp1969
F89.27653820148748
s(I20
I6
g1
(g5
S'\x00\x00\x00\x00\x00\x00N@'
p1970
tp1971
Rp1972
I00
tp1973
F0.0
s(I20
I6
g510
I01
tp1974
F0.0
s(I20
I9
g1
(g5
S'\x00\x00\x00\x00\x00\x004@'
p1975
tp1976
Rp1977
I01
tp1978
F0.0
s(I20
I9
g514
I00
tp1979
F0.0
s(I20
I14
g522
I01
tp1980
F0.0
s(I20
I7
g1
(g5
S'\x00\x00\x00\x00\x00\x00I@'
p1981
tp1982
Rp1983
I01
tp1984
F0.0
s(I20
I4
g530
I01
tp1985
F0.0
s(I20
I5
g1
(g5
S'\x00\x00\x00\x00\x00\x00M@'
p1986
tp1987
Rp1988
I01
tp1989
F0.0
s(I20
I5
g542
I00
tp1990
F87.5185936443543
s(I20
I13
g546
I00
tp1991
F0.0
s(I20
I3
g558
I00
tp1992
F0.0
s(I20
I11
g566
I00
tp1993
F0.0
s(I20
I1
g570
I00
tp1994
F29.452332657200813
s(I20
I7
g1
(g5
S'\x00\x00\x00\x00\x00\x00R@'
p1995
tp1996
Rp1997
I01
tp1998
F0.0
s(I20
I8
g1
(g5
S'\x00\x00\x00\x00\x00\x00X@'
p1999
tp2000
Rp2001
I00
tp2002
F28.221771467207574
s(I20
I8
g590
I01
tp2003
F0.0
s(I20
I4
g1
(g5
S'\x00\x00\x00\x00\x00\x80S@'
p2004
tp2005
Rp2006
I00
tp2007
F74.78025693035835
s(I20
I12
g1
(g5
S'\x00\x00\x00\x00\x00\x00 @'
p2008
tp2009
Rp2010
I00
tp2011
F0.0
s(I20
I12
g598
I01
tp2012
F0.0
s(I20
I2
g1
(g5
S'\x00\x00\x00\x00\x00\x00(@'
p2013
tp2014
Rp2015
I00
tp2016
F0.0
s(I20
I10
g1
(g5
S'\x00\x00\x00\x00\x00\x00I@'
p2017
tp2018
Rp2019
I00
tp2020
F0.0
s(I20
I10
g602
I01
tp2021
F0.0
s(I20
I11
g1
(g5
S'\x00\x00\x00\x00\x00\x00@@'
p2022
tp2023
Rp2024
I01
tp2025
F0.0
s(I20
I8
g606
I01
tp2026
F0.0
s(I20
I1
g1
(g5
S'\x00\x00\x00\x00\x00\x80P@'
p2027
tp2028
Rp2029
I01
tp2030
F92.0418371987267
s(I20
I1
g614
I00
tp2031
F100.0
s(I20
I6
g1
(g5
S'\x00\x00\x00\x00\x00\x00<@'
p2032
tp2033
Rp2034
I00
tp2035
F0.0
s(I20
I9
g1
(g5
S'\x00\x00\x00\x00\x00\x00J@'
p2036
tp2037
Rp2038
I01
tp2039
F0.0
s(I20
I9
g618
I00
tp2040
F0.0
s(I20
I14
g1
(g5
S'\x00\x00\x00\x00\x00\x80V@'
p2041
tp2042
Rp2043
I00
tp2044
F0.0
s(I20
I14
g622
I01
tp2045
F0.0
s(I20
I4
g1
(g5
S'\x00\x00\x00\x00\x00\x00D@'
p2046
tp2047
Rp2048
I00
tp2049
F0.0
s(I20
I4
g630
I01
tp2050
F0.0
s(I20
I12
g634
I01
tp2051
F0.0
s(I20
I5
g1
(g5
S'\x00\x00\x00\x00\x00\x80V@'
p2052
tp2053
Rp2054
I01
tp2055
F93.79263301500683
s(I20
I13
g1
(g5
S'\x00\x00\x00\x00\x00\x00\x10@'
p2056
tp2057
Rp2058
I01
tp2059
F0.0
s(I20
I13
g642
I00
tp2060
F0.0
s(I20
I2
g1
(g5
S'\x00\x00\x00\x00\x00\x80X@'
p2061
tp2062
Rp2063
I00
tp2064
F100.0
s(I20
I2
g650
I01
tp2065
F87.13051386994088
s(I20
I3
g1
(g5
S'\x00\x00\x00\x00\x00\x000@'
p2066
tp2067
Rp2068
I01
tp2069
F0.0
s(I20
I3
g662
I00
tp2070
F8.316430020283976
s(I20
I11
g1
(g5
S'\x00\x00\x00\x00\x00\x80Q@'
p2071
tp2072
Rp2073
I01
tp2074
F0.0
s(I20
I1
g670
I00
tp2075
F85.4496281271129
s(I20
I6
g678
I01
tp2076
F29.445202364711232
s(I20
I7
g690
I00
tp2077
F0.0
s(I20
I5
g702
I00
tp2078
F0.0
s(I20
I8
g1
(g5
S'\x00\x00\x00\x00\x00\x00P@'
p2079
tp2080
Rp2081
I00
tp2082
F0.0
s(I20
I3
g710
I00
tp2083
F78.16091954022988
s(I20
I10
g1
(g5
S'\x00\x00\x00\x00\x00\x002@'
p2084
tp2085
Rp2086
I00
tp2087
F0.0
s(I20
I8
g1
(g5
S'\x00\x00\x00\x00\x00\x00E@'
p2088
tp2089
Rp2090
I00
tp2091
F0.0
s(I20
I8
g722
I01
tp2092
F0.0
s(I20
I1
g1
(g5
S'\x00\x00\x00\x00\x00\x80X@'
p2093
tp2094
Rp2095
I01
tp2096
F100.0
s(I20
I9
g1
(g5
S'\x00\x00\x00\x00\x00\x00U@'
p2097
tp2098
Rp2099
I01
tp2100
F0.0
s(I20
I14
g1
(g5
S'\x00\x00\x00\x00\x00\x00M@'
p2101
tp2102
Rp2103
I00
tp2104
F0.0
s(I20
I14
g726
I01
tp2105
F0.0
s(I20
I4
g1
(g5
S'\x00\x00\x00\x00\x00\x00 @'
p2106
tp2107
Rp2108
I00
tp2109
F0.0
s(I20
I12
g1
(g5
S'\x00\x00\x00\x00\x00\x00I@'
p2110
tp2111
Rp2112
I00
tp2113
F0.0
s(I20
I12
g734
I01
tp2114
F0.0
s(I20
I13
g1
(g5
S'\x00\x00\x00\x00\x00\x00B@'
p2115
tp2116
Rp2117
I01
tp2118
F0.0
s(I20
I13
g738
I00
tp2119
F0.0
s(I20
I2
g1
(g5
S'\x00\x00\x00\x00\x00\x80P@'
p2120
tp2121
Rp2122
I00
tp2123
F82.25828262339418
s(I20
I2
g746
I01
tp2124
F10.754888585720781
s(I20
I10
g754
I01
tp2125
F0.0
s(I20
I3
g1
(g5
S'\x00\x00\x00\x00\x00\x00H@'
p2126
tp2127
Rp2128
I01
tp2129
F5.457025920873124
s(I20
I11
g762
I00
tp2130
F0.0
s(I20
I1
g1
(g5
S'\x00\x00\x00\x00\x00\x00\x10@'
p2131
tp2132
Rp2133
I01
tp2134
F0.0
s(I20
I1
g774
I00
tp2135
F100.0
s(I20
I6
g1
(g5
S'\x00\x00\x00\x00\x00\x80V@'
p2136
tp2137
Rp2138
I00
tp2139
F77.63353617308992
s(I20
I6
g778
I01
tp2140
F0.0
s(I20
I9
g786
I00
tp2141
F0.0
s(I20
I14
g794
I01
tp2142
F0.0
s(I20
I7
g1
(g5
S'\x00\x00\x00\x00\x00\x00 @'
p2143
tp2144
Rp2145
I01
tp2146
F0.0
s(I20
I7
g802
I00
tp2147
F0.0
s(I20
I5
g1
(g5
S'\x00\x00\x00\x00\x00\x004@'
p2148
tp2149
Rp2150
I01
tp2151
F0.0
s(I20
I5
g810
I00
tp2152
F0.0
s(I20
I3
g1
(g5
S'\x00\x00\x00\x00\x00\x80U@'
p2153
tp2154
Rp2155
I01
tp2156
F98.02182810368349
s(I20
I12
g1
(g5
S'\x00\x00\x00\x00\x00\x00R@'
p2157
tp2158
Rp2159
I00
tp2160
F0.0
s(I20
I7
g834
I00
tp2161
F0.0
s(I20
I8
g1
(g5
S'\x00\x00\x00\x00\x00\x00$@'
p2162
tp2163
Rp2164
I00
tp2165
F0.0
s(I20
I14
g1
(g5
S'\x00\x00\x00\x00\x00\x00:@'
p2166
tp2167
Rp2168
I00
tp2169
F0.0
s(I20
I4
g846
I01
tp2170
F47.61255115961801
s(I20
I12
g1
(g5
S'\x00\x00\x00\x00\x00\x002@'
p2171
tp2172
Rp2173
I00
tp2174
F0.0
s(I20
I13
g1
(g5
S'\x00\x00\x00\x00\x00\x00Q@'
p2175
tp2176
Rp2177
I01
tp2178
F0.0
s(I20
I13
g854
I00
tp2179
F0.0
s(I20
I2
g1
(g5
S'\x00\x00\x00\x00\x00\x00A@'
p2180
tp2181
Rp2182
I00
tp2183
F3.705206220419202
s(I20
I2
g858
I01
tp2184
F0.0
s(I20
I10
g1
(g5
S'\x00\x00\x00\x00\x00\x00V@'
p2185
tp2186
Rp2187
I00
tp2188
F0.0
s(I20
I10
g862
I01
tp2189
F0.0
s(I20
I11
g1
(g5
S'\x00\x00\x00\x00\x00\x00\x18@'
p2190
tp2191
Rp2192
I01
tp2193
F0.0
s(I20
I11
g870
I00
tp2194
F0.0
s(I20
I8
g874
I01
tp2195
F0.0
s(I20
I1
g1
(g5
S'\x00\x00\x00\x00\x00\x00B@'
p2196
tp2197
Rp2198
I01
tp2199
F55.320600272851294
s(I20
I6
g1
(g5
S'\x00\x00\x00\x00\x00\x00M@'
p2200
tp2201
Rp2202
I00
tp2203
F0.0
s(I20
I6
g882
I01
tp2204
F0.0
s(I20
I9
g1
(g5
S'\x00\x00\x00\x00\x00\x00>@'
p2205
tp2206
Rp2207
I01
tp2208
F0.0
s(I20
I9
g886
I00
tp2209
F0.0
s(I20
I14
g1
(g5
S'\x00\x00\x00\x00\x00\x00X@'
p2210
tp2211
Rp2212
I00
tp2213
F0.0
s(I20
I14
g894
I01
tp2214
F0.0
s(I20
I7
g1
(g5
S'\x00\x00\x00\x00\x00\x00D@'
p2215
tp2216
Rp2217
I01
tp2218
F0.0
s(I20
I4
g902
I01
tp2219
F0.0
s(I20
I5
g1
(g5
S'\x00\x00\x00\x00\x00\x00J@'
p2220
tp2221
Rp2222
I01
tp2223
F0.0
s(I20
I5
g910
I00
tp2224
F64.04327248140635
s(I20
I13
g914
I00
tp2225
F0.0
s(I20
I2
g922
I01
tp2226
F100.0
s(I20
I3
g934
I00
tp2227
F0.0
s(I20
I11
g942
I00
tp2228
F0.0
s(I20
I1
g950
I00
tp2229
F34.26639621365788
s(I20
I7
g1
(g5
S'\x00\x00\x00\x00\x00\x80Q@'
p2230
tp2231
Rp2232
I01
tp2233
F0.0
s(I20
I7
g962
I00
tp2234
F92.64367816091954
s(I20
I8
g974
I01
tp2235
F0.0
s(I20
I4
g1
(g5
S'\x00\x00\x00\x00\x00\x00R@'
p2236
tp2237
Rp2238
I00
tp2239
F52.237998647734955
s(I20
I12
g982
I01
tp2240
F0.0
s(I20
I2
g1
(g5
S'\x00\x00\x00\x00\x00\x00\x00@'
p2241
tp2242
Rp2243
I00
tp2244
F0.0
s(I20
I10
g1
(g5
S'\x00\x00\x00\x00\x00\x00L@'
p2245
tp2246
Rp2247
I00
tp2248
F0.0
s(I20
I10
g990
I01
tp2249
F0.0
s(I20
I11
g1
(g5
S'\x00\x00\x00\x00\x00\x00C@'
p2250
tp2251
Rp2252
I01
tp2253
F0.0
s(I20
I8
g994
I01
tp2254
F0.0
s(I20
I1
g1
(g5
S'\x00\x00\x00\x00\x00\x00Q@'
p2255
tp2256
Rp2257
I01
tp2258
F93.47430650295588
s(I20
I6
g1
(g5
S'\x00\x00\x00\x00\x00\x00:@'
p2259
tp2260
Rp2261
I00
tp2262
F0.0
s(I20
I9
g1
(g5
S'\x00\x00\x00\x00\x00\x00O@'
p2263
tp2264
Rp2265
I01
tp2266
F0.0
s(I20
I9
g998
I00
tp2267
F0.0
s(I20
I14
g1
(g5
S'\x00\x00\x00\x00\x00\x00P@'
p2268
tp2269
Rp2270
I00
tp2271
F0.0
s(I20
I14
g1006
I01
tp2272
F0.0
s(I20
I4
g1
(g5
S'\x00\x00\x00\x00\x00\x00A@'
p2273
tp2274
Rp2275
I00
tp2276
F0.0
s(I20
I4
g1014
I01
tp2277
F0.0
s(I20
I12
g1022
I01
tp2278
F0.0
s(I20
I5
g1
(g5
S'\x00\x00\x00\x00\x00\x00U@'
p2279
tp2280
Rp2281
I01
tp2282
F76.30741246020919
s(I20
I13
g1
(g5
S'\x00\x00\x00\x00\x00\x00,@'
p2283
tp2284
Rp2285
I01
tp2286
F0.0
s(I20
I13
g1030
I00
tp2287
F0.0
s(I20
I2
g1
(g5
S'\x00\x00\x00\x00\x00\x00V@'
p2288
tp2289
Rp2290
I00
tp2291
F99.85125084516565
s(I20
I2
g1038
I01
tp2292
F71.98726693951795
s(I20
I10
g1046
I01
tp2293
F0.0
s(I20
I3
g1
(g5
S'\x00\x00\x00\x00\x00\x006@'
p2294
tp2295
Rp2296
I01
tp2297
F0.0
s(I20
I3
g1054
I00
tp2298
F0.0
s(I20
I11
g1
(g5
S'\x00\x00\x00\x00\x00\x00S@'
p2299
tp2300
Rp2301
I01
tp2302
F0.0
s(I20
I1
g1
(g5
S'\x00\x00\x00\x00\x00\x00>@'
p2303
tp2304
Rp2305
I01
tp2306
F42.814915870850385
s(I20
I1
g1062
I00
tp2307
F86.76132521974307
s(I20
I6
g1070
I01
tp2308
F15.25693497044111
s(I20
I7
g1082
I00
tp2309
F0.0
s(I20
I5
g1094
I00
tp2310
F0.0
s(I20
I8
g1
(g5
S'\x00\x00\x00\x00\x00\x80R@'
p2311
tp2312
Rp2313
I00
tp2314
F0.0
s(I20
I3
g1106
I00
tp2315
F87.5050709939148
s(I20
I12
g1
(g5
S'\x00\x00\x00\x00\x00\x80T@'
p2316
tp2317
Rp2318
I00
tp2319
F0.0
s(I20
I7
g1118
I00
tp2320
F75.15889114266396
s(I20
I10
g1
(g5
S'\x00\x00\x00\x00\x00\x008@'
p2321
tp2322
Rp2323
I00
tp2324
F0.0
s(I20
I8
g1
(g5
S'\x00\x00\x00\x00\x00\x00F@'
p2325
tp2326
Rp2327
I00
tp2328
F0.0
s(I20
I9
g1
(g5
S'\x00\x00\x00\x00\x00\x80W@'
p2329
tp2330
Rp2331
I01
tp2332
F0.0
s(I20
I14
g1
(g5
S'\x00\x00\x00\x00\x00\x00@@'
p2333
tp2334
Rp2335
I00
tp2336
F0.0
s(I20
I14
g1126
I01
tp2337
F0.0
s(I20
I4
g1
(g5
S'\x00\x00\x00\x00\x00\x00\x00@'
p2338
tp2339
Rp2340
I00
tp2341
F0.0
s(I20
I4
g1130
I01
tp2342
F100.0
s(I20
I12
g1
(g5
S'\x00\x00\x00\x00\x00\x00N@'
p2343
tp2344
Rp2345
I00
tp2346
F0.0
s(I20
I12
g1134
I01
tp2347
F0.0
s(I20
I13
g1
(g5
S'\x00\x00\x00\x00\x00\x00G@'
p2348
tp2349
Rp2350
I01
tp2351
F0.0
s(I20
I13
g1138
I00
tp2352
F0.0
s(I20
I2
g1
(g5
S'\x00\x00\x00\x00\x00\x00L@'
p2353
tp2354
Rp2355
I00
tp2356
F65.0709939148073
s(I20
I2
g1142
I01
tp2357
F0.0
s(I20
I10
g1146
I01
tp2358
F0.0
s(I20
I3
g1
(g5
S'\x00\x00\x00\x00\x00\x00K@'
p2359
tp2360
Rp2361
I01
tp2362
F26.80763983628922
s(I20
I11
g1154
I00
tp2363
F0.0
s(I20
I1
g1
(g5
S'\x00\x00\x00\x00\x00\x00O@'
p2364
tp2365
Rp2366
I01
tp2367
F89.01773533424284
s(I20
I1
g1162
I00
tp2368
F100.0
s(I20
I6
g1
(g5
S'\x00\x00\x00\x00\x00\x00T@'
p2369
tp2370
Rp2371
I00
tp2372
F3.8810006761325218
s(I20
I6
g1166
I01
tp2373
F0.0
s(I20
I9
g1174
I00
tp2374
F0.0
s(I20
I7
g1
(g5
S'\x00\x00\x00\x00\x00\x00\x18@'
p2375
tp2376
Rp2377
I01
tp2378
F0.0
s(I20
I7
g1186
I00
tp2379
F0.0
s(I20
I4
g1190
I01
tp2380
F2.1145975443383356
s(I20
I5
g1
(g5
S'\x00\x00\x00\x00\x00\x00,@'
p2381
tp2382
Rp2383
I01
tp2384
F0.0
s(I20
I5
g1198
I00
tp2385
F0.0
s(I20
I13
g1206
I00
tp2386
F0.0
s(I20
I3
g1
(g5
S'\x00\x00\x00\x00\x00\x00S@'
p2387
tp2388
Rp2389
I01
tp2390
F87.49431559799909
s(I20
I11
g1222
I00
tp2391
F0.0
s(I20
I7
g1
(g5
S'\x00\x00\x00\x00\x00\x00W@'
p2392
tp2393
Rp2394
I01
tp2395
F51.819008640291045
s(I20
I8
g1
(g5
S'\x00\x00\x00\x00\x00\x00(@'
p2396
tp2397
Rp2398
I00
tp2399
F0.0
s(I20
I8
g1234
I01
tp2400
F0.0
s(I20
I14
g1
(g5
S'\x00\x00\x00\x00\x00\x00\x00\x00'
p2401
tp2402
Rp2403
I00
tp2404
F0.0
s(I20
I4
g1
(g5
S'\x00\x00\x00\x00\x00\x80X@'
p2405
tp2406
Rp2407
I00
tp2408
F100.0
s(I20
I4
g1238
I01
tp2409
F19.031377899045022
s(I20
I12
g1
(g5
S'\x00\x00\x00\x00\x00\x00<@'
p2410
tp2411
Rp2412
I00
tp2413
F0.0
s(I20
I13
g1
(g5
S'\x00\x00\x00\x00\x00\x80S@'
p2414
tp2415
Rp2416
I01
tp2417
F0.0
s(I20
I2
g1
(g5
S'\x00\x00\x00\x00\x00\x008@'
p2418
tp2419
Rp2420
I00
tp2421
F0.0
s(I20
I10
g1
(g5
S'\x00\x00\x00\x00\x00\x80W@'
p2422
tp2423
Rp2424
I00
tp2425
F0.0
s(I20
I10
g1246
I01
tp2426
F0.0
s(I20
I11
g1
(g5
S'\x00\x00\x00\x00\x00\x00(@'
p2427
tp2428
Rp2429
I01
tp2430
F0.0
s(I20
I11
g1254
I00
tp2431
F0.0
s(I20
I8
g1258
I01
tp2432
F0.0
s(I20
I1
g1
(g5
S'\x00\x00\x00\x00\x00\x80W@'
p2433
tp2434
Rp2435
I01
tp2436
F100.0
s(I20
I6
g1
(g5
S'\x00\x00\x00\x00\x00\x00H@'
p2437
tp2438
Rp2439
I00
tp2440
F0.0
s(I20
I6
g1266
I01
tp2441
F0.0
s(I20
I9
g1
(g5
S'\x00\x00\x00\x00\x00\x00\x00\x00'
p2442
tp2443
Rp2444
I01
tp2445
F0.0
s(I20
I9
g1270
I00
tp2446
F0.0
s(I20
I14
g1278
I01
tp2447
F0.0
s(I20
I7
g1
(g5
S'\x00\x00\x00\x00\x00\x00C@'
p2448
tp2449
Rp2450
I01
tp2451
F0.0
s(I20
I4
g1
(g5
S'\x00\x00\x00\x00\x00\x00N@'
p2452
tp2453
Rp2454
I00
tp2455
F3.5429344151453686
s(I20
I4
g1286
I01
tp2456
F0.0
s(I20
I5
g1
(g5
S'\x00\x00\x00\x00\x00\x00G@'
p2457
tp2458
Rp2459
I01
tp2460
F0.0
s(I20
I5
g1294
I00
tp2461
F23.39418526031102
s(I20
I13
g1298
I00
tp2462
F0.0
s(I20
I2
g1306
I01
tp2463
F96.81673487949067
s(I20
I3
g1314
I00
tp2464
F0.0
s(I20
I11
g1
(g5
S'\x00\x00\x00\x00\x00\x80T@'
p2465
tp2466
Rp2467
I01
tp2468
F0.0
s(I20
I1
g1326
I00
tp2469
F17.660581473968897
s(I20
I7
g1338
I00
tp2470
F0.0
s(I20
I4
g1
(g5
S'\x00\x00\x00\x00\x00\x80P@'
p2471
tp2472
Rp2473
I00
tp2474
F22.542258282623393
s(I20
I12
g1354
I01
tp2475
F0.0
s(I20
I10
g1
(g5
S'\x00\x00\x00\x00\x00\x00O@'
p2476
tp2477
Rp2478
I00
tp2479
F0.0
s(I20
I10
g1362
I01
tp2480
F0.0
s(I20
I11
g1
(g5
S'\x00\x00\x00\x00\x00\x00F@'
p2481
tp2482
Rp2483
I01
tp2484
F0.0
s(I20
I8
g1
(g5
S'\x00\x00\x00\x00\x00\x00K@'
p2485
tp2486
Rp2487
I00
tp2488
F0.0
s(I20
I8
g1366
I01
tp2489
F0.0
s(I20
I6
g1
(g5
S'\x00\x00\x00\x00\x00\x000@'
p2490
tp2491
Rp2492
I00
tp2493
F0.0
s(I20
I9
g1
(g5
S'\x00\x00\x00\x00\x00\x00@@'
p2494
tp2495
Rp2496
I01
tp2497
F0.0
s(I20
I9
g1370
I00
tp2498
F0.0
s(I20
I14
g1
(g5
S'\x00\x00\x00\x00\x00\x80S@'
p2499
tp2500
Rp2501
I00
tp2502
F0.0
s(I20
I14
g1374
I01
tp2503
F0.0
s(I20
I4
g1
(g5
S'\x00\x00\x00\x00\x00\x00<@'
p2504
tp2505
Rp2506
I00
tp2507
F0.0
s(I20
I12
g1386
I01
tp2508
F0.0
s(I20
I5
g1
(g5
S'\x00\x00\x00\x00\x00\x80S@'
p2509
tp2510
Rp2511
I01
tp2512
F41.92814915870851
s(I20
I13
g1
(g5
S'\x00\x00\x00\x00\x00\x00 @'
p2513
tp2514
Rp2515
I01
tp2516
F0.0
s(I20
I13
g1394
I00
tp2517
F0.0
s(I20
I2
g1
(g5
S'\x00\x00\x00\x00\x00\x80W@'
p2518
tp2519
Rp2520
I00
tp2521
F100.0
s(I20
I2
g1398
I01
tp2522
F48.249204183719876
s(I20
I3
g1
(g5
S'\x00\x00\x00\x00\x00\x00(@'
p2523
tp2524
Rp2525
I01
tp2526
F0.0
s(I20
I3
g1410
I00
tp2527
F1.162947937795808
s(I20
I11
g1414
I00
tp2528
F0.0
s(I20
I1
g1
(g5
S'\x00\x00\x00\x00\x00\x000@'
p2529
tp2530
Rp2531
I01
tp2532
F1.0459299681673488
s(I20
I1
g1422
I00
tp2533
F82.43407707910751
s(I20
I6
g1430
I01
tp2534
F0.0
s(I20
I7
g1
(g5
S'\x00\x00\x00\x00\x00\x00<@'
p2535
tp2536
Rp2537
I01
tp2538
F0.0
s(I20
I7
g1446
I00
tp2539
F0.0
s(I20
I5
g1454
I00
tp2540
F0.0
s(I20
I8
g1
(g5
S'\x00\x00\x00\x00\x00\x00S@'
p2541
tp2542
Rp2543
I00
tp2544
F0.0
s(I20
I3
g1466
I00
tp2545
F68.8708586883029
s(I20
I12
g1
(g5
S'\x00\x00\x00\x00\x00\x00W@'
p2546
tp2547
Rp2548
I00
tp2549
F0.0
s(I20
I7
g1474
I00
tp2550
F0.027045300878972278
s(I20
I10
g1
(g5
S'\x00\x00\x00\x00\x00\x00>@'
p2551
tp2552
Rp2553
I00
tp2554
F0.0
s(I20
I8
g1
(g5
S'\x00\x00\x00\x00\x00\x006@'
p2555
tp2556
Rp2557
I00
tp2558
F0.0
s(I20
I9
g1
(g5
S'\x00\x00\x00\x00\x00\x00P@'
p2559
tp2560
Rp2561
I01
tp2562
F0.0
s(I20
I14
g1
(g5
S'\x00\x00\x00\x00\x00\x00G@'
p2563
tp2564
Rp2565
I00
tp2566
F0.0
s(I20
I14
g1482
I01
tp2567
F0.0
s(I20
I4
g1486
I01
tp2568
F98.43110504774899
s(I20
I12
g1
(g5
S'\x00\x00\x00\x00\x00\x00C@'
p2569
tp2570
Rp2571
I00
tp2572
F0.0
s(I20
I12
g1490
I01
tp2573
F0.0
s(I20
I13
g1
(g5
S'\x00\x00\x00\x00\x00\x00D@'
p2574
tp2575
Rp2576
I01
tp2577
F0.0
s(I20
I2
g1
(g5
S'\x00\x00\x00\x00\x00\x00O@'
p2578
tp2579
Rp2580
I00
tp2581
F76.74104124408385
s(I20
I2
g1498
I01
tp2582
F0.0
s(I20
I10
g1502
I01
tp2583
F0.0
s(I20
I3
g1
(g5
S'\x00\x00\x00\x00\x00\x00F@'
p2584
tp2585
Rp2586
I01
tp2587
F0.7276034561164165
s(I20
I11
g1
(g5
S'\x00\x00\x00\x00\x00\x002@'
p2588
tp2589
Rp2590
I01
tp2591
F0.0
s(I20
I11
g1510
I00
tp2592
F0.0
s(I20
I1
g1
(g5
S'\x00\x00\x00\x00\x00\x00H@'
p2593
tp2594
Rp2595
I01
tp2596
F76.51205093224192
s(I20
I1
g1518
I00
tp2597
F99.95943204868153
s(I20
I6
g1
(g5
S'\x00\x00\x00\x00\x00\x80S@'
p2598
tp2599
Rp2600
I00
tp2601
F0.7437457741717377
s(I20
I6
g1522
I01
tp2602
F0.0
s(I20
I9
g1530
I00
tp2603
F0.0
s(I20
I14
g1538
I01
tp2604
F0.0
s(I20
I7
g1
(g5
S'\x00\x00\x00\x00\x00\x00N@'
p2605
tp2606
Rp2607
I01
tp2608
F0.0
s(I20
I4
g1546
I01
tp2609
F0.022737608003638016
s(I20
I5
g1
(g5
S'\x00\x00\x00\x00\x00\x00 @'
p2610
tp2611
Rp2612
I01
tp2613
F0.0
s(I20
I5
g1554
I00
tp2614
F0.0
s(I20
I13
g1562
I00
tp2615
F0.0
s(I20
I3
g1
(g5
S'\x00\x00\x00\x00\x00\x80P@'
p2616
tp2617
Rp2618
I01
tp2619
F67.71259663483401
s(I20
I11
g1578
I00
tp2620
F0.0
s(I20
I7
g1
(g5
S'\x00\x00\x00\x00\x00\x80V@'
p2621
tp2622
Rp2623
I01
tp2624
F22.510231923601637
s(I20
I8
g1598
I01
tp2625
F0.0
s(I20
I9
g1
(g5
S'\x00\x00\x00\x00\x00\x00X@'
p2626
tp2627
Rp2628
I01
tp2629
F0.0
s(I20
I14
g1
(g5
S'\x00\x00\x00\x00\x00\x00,@'
p2630
tp2631
Rp2632
I00
tp2633
F0.0
s(I20
I4
g1
(g5
S'\x00\x00\x00\x00\x00\x00W@'
p2634
tp2635
Rp2636
I00
tp2637
F99.36443542934416
s(I20
I12
g1
(g5
S'\x00\x00\x00\x00\x00\x00\x18@'
p2638
tp2639
Rp2640
I00
tp2641
F0.0
s(I20
I13
g1
(g5
S'\x00\x00\x00\x00\x00\x00R@'
p2642
tp2643
Rp2644
I01
tp2645
F0.0
s(I20
I2
g1
(g5
S'\x00\x00\x00\x00\x00\x00>@'
p2646
tp2647
Rp2648
I00
tp2649
F0.14874915483434753
s(I20
I10
g1
(g5
S'\x00\x00\x00\x00\x00\x00Q@'
p2650
tp2651
Rp2652
I00
tp2653
F0.0
s(I20
I10
g1610
I01
tp2654
F0.0
s(I20
I11
g1
(g5
S'\x00\x00\x00\x00\x00\x00I@'
p2655
tp2656
Rp2657
I01
tp2658
F0.0
s(I20
I8
g1618
I01
tp2659
F0.0
s(I20
I1
g1
(g5
S'\x00\x00\x00\x00\x00\x00T@'
p2660
tp2661
Rp2662
I01
tp2663
F99.11323328785812
s(I20
I6
g1
(g5
S'\x00\x00\x00\x00\x00\x00G@'
p2664
tp2665
Rp2666
I00
tp2667
F0.0
s(I20
I6
g1626
I01
tp2668
F0.0
s(I20
I9
g1
(g5
S'\x00\x00\x00\x00\x00\x00$@'
p2669
tp2670
Rp2671
I01
tp2672
F0.0
s(I20
I9
g1630
I00
tp2673
F0.0
s(I20
I14
g1
(g5
S'\x00\x00\x00\x00\x00\x00U@'
p2674
tp2675
Rp2676
I00
tp2677
F0.0
s(I20
I14
g1638
I01
tp2678
F0.0
s(I20
I4
g1
(g5
S'\x00\x00\x00\x00\x00\x00K@'
p2679
tp2680
Rp2681
I00
tp2682
F0.027045300878972278
s(I20
I4
g1646
I01
tp2683
F0.0
s(I20
I5
g1
(g5
S'\x00\x00\x00\x00\x00\x00D@'
p2684
tp2685
Rp2686
I01
tp2687
F0.0
s(I20
I5
g1651
I00
tp2688
F2.5152129817444218
s(I20
I13
g1
(g5
S'\x00\x00\x00\x00\x00\x002@'
p2689
tp2690
Rp2691
I01
tp2692
F0.0
s(I20
I13
g1655
I00
tp2693
F0.0
s(I20
I2
g1660
I01
tp2694
F99.59072305593452
s(I20
I3
g1
(g5
S'\x00\x00\x00\x00\x00\x80X@'
p2695
tp2696
Rp2697
I01
tp2698
F100.0
s(I20
I3
g1665
I00
tp2699
F0.0
s(I20
I11
g1
(g5
S'\x00\x00\x00\x00\x00\x00V@'
p2700
tp2701
Rp2702
I01
tp2703
F0.0
s(I20
I1
g1671
I00
tp2704
F0.0
s(I20
I7
g1678
I00
tp2705
F0.0
s(I20
I8
g1
(g5
S'\x00\x00\x00\x00\x00\x80U@'
p2706
tp2707
Rp2708
I00
tp2709
F0.0
s(I20
I3
g1684
I00
tp2710
F99.66193373901284
s(I20
I12
g1688
I01
tp2711
F0.0
s(I20
I10
g1
(g5
S'\x00\x00\x00\x00\x00\x00B@'
p2712
tp2713
Rp2714
I00
tp2715
F0.0
s(I20
I10
g1693
I01
tp2716
F0.0
s(I20
I8
g1
(g5
S'\x00\x00\x00\x00\x00\x00L@'
p2717
tp2718
Rp2719
I00
tp2720
F0.0
s(I20
I8
g1697
I01
tp2721
F0.0
s(I20
I6
g1
(g5
S'\x00\x00\x00\x00\x00\x00,@'
p2722
tp2723
Rp2724
I00
tp2725
F0.0
s(I20
I9
g1
(g5
S'\x00\x00\x00\x00\x00\x00E@'
p2726
tp2727
Rp2728
I01
tp2729
F0.0
s(I20
I9
g1701
I00
tp2730
F0.0
s(I20
I14
g1
(g5
S'\x00\x00\x00\x00\x00\x00J@'
p2731
tp2732
Rp2733
I00
tp2734
F0.0
s(I20
I14
g1705
I01
tp2735
F0.0
s(I20
I4
g1
(g5
S'\x00\x00\x00\x00\x00\x006@'
p2736
tp2737
Rp2738
I00
tp2739
F0.0
s(I20
I12
g1710
I01
tp2740
F0.0
s(I20
I5
g1
(g5
S'\x00\x00\x00\x00\x00\x00R@'
p2741
tp2742
Rp2743
I01
tp2744
F10.300136425648022
s(I20
I13
g1
(g5
S'\x00\x00\x00\x00\x00\x00I@'
p2745
tp2746
Rp2747
I01
tp2748
F0.0
s(I20
I13
g1715
I00
tp2749
F0.0
s(I20
I2
g1
(g5
S'\x00\x00\x00\x00\x00\x00U@'
p2750
tp2751
Rp2752
I00
tp2753
F98.55307640297498
s(I20
I2
g1719
I01
tp2754
F63.34697589813552
s(I20
I3
g1
(g5
S'\x00\x00\x00\x00\x00\x00\x00@'
p2755
tp2756
Rp2757
I01
tp2758
F0.0
s(I20
I3
g1725
I00
tp2759
F0.0
s(I20
I11
g1729
I00
tp2760
F0.0
s(I20
I1
g1
(g5
S'\x00\x00\x00\x00\x00\x00$@'
p2761
tp2762
Rp2763
I01
tp2764
F0.0
s(I20
I1
g1734
I00
tp2765
F62.13657876943881
s(I20
I6
g1739
I01
tp2766
F0.0
s(I20
I9
g1744
I00
tp2767
F0.0
s(I20
I7
g1
(g5
S'\x00\x00\x00\x00\x00\x00:@'
p2768
tp2769
Rp2770
I01
tp2771
F0.0
s(I20
I7
g1750
I00
tp2772
F0.0
s(I20
I5
g1755
I00
tp2773
F0.0
s(I20
I3
g1
(g5
S'\x00\x00\x00\x00\x00\x00V@'
p2774
tp2775
Rp2776
I01
tp2777
F99.11323328785812
s(I20
I12
g1
(g5
S'\x00\x00\x00\x00\x00\x80Q@'
p2778
tp2779
Rp2780
I00
tp2781
F0.0
s(I20
I7
g1763
I00
tp2782
F0.0
s(I20
I10
g1
(g5
S'\x00\x00\x00\x00\x00\x00\x10@'
p2783
tp2784
Rp2785
I00
tp2786
F0.0
s(I20
I8
g1
(g5
S'\x00\x00\x00\x00\x00\x008@'
p2787
tp2788
Rp2789
I00
tp2790
F0.0
s(I20
I9
g1
(g5
S'\x00\x00\x00\x00\x00\x80R@'
p2791
tp2792
Rp2793
I01
tp2794
F0.0
s(I20
I14
g1
(g5
S'\x00\x00\x00\x00\x00\x004@'
p2795
tp2796
Rp2797
I00
tp2798
F0.0
s(I20
I4
g1768
I01
tp2799
F90.90495679854479
s(I20
I12
g1
(g5
S'\x00\x00\x00\x00\x00\x00@@'
p2800
tp2801
Rp2802
I00
tp2803
F0.0
s(I20
I12
g1772
I01
tp2804
F0.0
s(I20
I13
g1
(g5
S'\x00\x00\x00\x00\x00\x80T@'
p2805
tp2806
Rp2807
I01
tp2808
F0.0
s(I20
I2
g1
(g5
S'\x00\x00\x00\x00\x00\x00J@'
p2809
tp2810
Rp2811
I00
tp2812
F54.306964164976335
s(I20
I2
g1776
I01
tp2813
F0.0
s(I20
I10
g1780
I01
tp2814
F0.0
s(I20
I3
g1
(g5
S'\x00\x00\x00\x00\x00\x00A@'
p2815
tp2816
Rp2817
I01
tp2818
F0.0
s(I20
I11
g1
(g5
S'\x00\x00\x00\x00\x00\x008@'
p2819
tp2820
Rp2821
I01
tp2822
F0.0
s(I20
I11
g1785
I00
tp2823
F0.0
s(I20
I1
g1
(g5
S'\x00\x00\x00\x00\x00\x00E@'
p2824
tp2825
Rp2826
I01
tp2827
F67.07594361073215
s(I20
I1
g1790
I00
tp2828
F94.5368492224476
s(I20
I6
g1
(g5
S'\x00\x00\x00\x00\x00\x00Q@'
p2829
tp2830
Rp2831
I00
tp2832
F0.0
s(I20
I6
g1794
I01
tp2833
F0.0
s(I20
I9
g1799
I00
tp2834
F0.0
s(I20
I14
g1804
I01
tp2835
F0.0
s(I20
I7
g1
(g5
S'\x00\x00\x00\x00\x00\x00M@'
p2836
tp2837
Rp2838
I01
tp2839
F0.0
s(I20
I4
g1809
I01
tp2840
F0.0
s(I20
I5
g1
(g5
S'\x00\x00\x00\x00\x00\x00\x00@'
p2841
tp2842
Rp2843
I01
tp2844
F0.0
s(I20
I5
g1815
I00
tp2845
F0.0
s(I20
I13
g1819
I00
tp2846
F0.0
s(I20
I3
g1825
I00
tp2847
F0.0
s(I20
I11
g1830
I00
tp2848
F0.0
s(I20
I7
g1
(g5
S'\x00\x00\x00\x00\x00\x00T@'
p2849
tp2850
Rp2851
I01
tp2852
F0.0
s(I20
I8
g1839
I01
tp2853
F2.887676216462028
s(I20
I4
g1
(g5
S'\x00\x00\x00\x00\x00\x80U@'
p2854
tp2855
Rp2856
I00
tp2857
F91.8999323867478
s(I20
I12
g1
(g5
S'\x00\x00\x00\x00\x00\x00\x00\x00'
p2858
tp2859
Rp2860
I00
tp2861
F0.0
s(I20
I2
g1
(g5
S'\x00\x00\x00\x00\x00\x004@'
p2862
tp2863
Rp2864
I00
tp2865
F0.0
s(I20
I10
g1
(g5
S'\x00\x00\x00\x00\x00\x80R@'
p2866
tp2867
Rp2868
I00
tp2869
F0.0
s(I20
I10
g1845
I01
tp2870
F0.0
s(I20
I11
g1
(g5
S'\x00\x00\x00\x00\x00\x00L@'
p2871
tp2872
Rp2873
I01
tp2874
F0.0
s(I20
I8
g1850
I01
tp2875
F0.0
s(I20
I1
g1
(g5
S'\x00\x00\x00\x00\x00\x80R@'
p2876
tp2877
Rp2878
I01
tp2879
F96.7712596634834
s(I20
I6
g1
(g5
S'\x00\x00\x00\x00\x00\x00B@'
p2880
tp2881
Rp2882
I00
tp2883
F0.0
s(I20
I6
g1855
I01
tp2884
F0.0
s(I20
I9
g1
(g5
S'\x00\x00\x00\x00\x00\x00(@'
p2885
tp2886
Rp2887
I01
tp2888
F0.0
s(I20
I9
g1859
I00
tp2889
F0.0
s(I20
I14
g1
(g5
S'\x00\x00\x00\x00\x00\x80T@'
p2890
tp2891
Rp2892
I00
tp2893
F0.0
s(I20
I14
g1863
I01
tp2894
F0.0
s(I20
I4
g1
(g5
S'\x00\x00\x00\x00\x00\x00H@'
p2895
tp2896
Rp2897
I00
tp2898
F0.0
s(I20
I4
g1868
I01
tp2899
F0.0
s(I20
I5
g1
(g5
S'\x00\x00\x00\x00\x00\x00A@'
p2900
tp2901
Rp2902
I01
tp2903
F0.0
s(I20
I5
g1873
I00
tp2904
F0.027045300878972278
s(I20
I13
g1
(g5
S'\x00\x00\x00\x00\x00\x00<@'
p2905
tp2906
Rp2907
I01
tp2908
F0.0
s(I20
I13
g1877
I00
tp2909
F0.0
s(I20
I2
g1882
I01
tp2910
F93.90632105502502
s(I20
I3
g1
(g5
S'\x00\x00\x00\x00\x00\x008@'
p2911
tp2912
Rp2913
I01
tp2914
F0.0
s(I20
I3
g1888
I00
tp2915
F35.51048005409061
s(I20
I11
g1
(g5
S'\x00\x00\x00\x00\x00\x80W@'
p2916
tp2917
Rp2918
I01
tp2919
F0.0
s(I20
I11
g1892
I00
tp2920
F0.0
s(I20
I1
g1897
I00
tp2921
F0.0
s(I20
I6
g1902
I01
tp2922
F89.33606184629377
s(I20
I7
g1908
I00
tp2923
F0.0
s(I20
I5
g1913
I00
tp2924
F0.0
s(I20
I8
g1
(g5
S'\x00\x00\x00\x00\x00\x00V@'
p2925
tp2926
Rp2927
I00
tp2928
F0.0
s(I20
I3
g1918
I00
tp2929
F89.88505747126436
s(I20
I12
g1
(g5
S'\x00\x00\x00\x00\x00\x00X@'
p2930
tp2931
Rp2932
I00
tp2933
F0.0
s(I20
I12
g1922
I01
tp2934
F0.0
s(I20
I10
g1
(g5
S'\x00\x00\x00\x00\x00\x00E@'
p2935
tp2936
Rp2937
I00
tp2938
F0.0
s(I20
I10
g1927
I01
tp2939
F0.0
s(I20
I8
g1
(g5
S'\x00\x00\x00\x00\x00\x00A@'
p2940
tp2941
Rp2942
I00
tp2943
F0.0
s(I20
I8
g1931
I01
tp2944
F0.0
s(I20
I6
g1
(g5
S'\x00\x00\x00\x00\x00\x00\x10@'
p2945
tp2946
Rp2947
I00
tp2948
F0.0
s(I20
I9
g1
(g5
S'\x00\x00\x00\x00\x00\x00F@'
p2949
tp2950
Rp2951
I01
tp2952
F0.0
s(I20
I14
g1
(g5
S'\x00\x00\x00\x00\x00\x00I@'
p2953
tp2954
Rp2955
I00
tp2956
F0.0
s(I20
I14
g1935
I01
tp2957
F0.0
s(I20
I4
g1
(g5
S'\x00\x00\x00\x00\x00\x000@'
p2958
tp2959
Rp2960
I00
tp2961
F0.0
s(I20
I12
g1940
I01
tp2962
F0.0
s(I20
I5
g1
(g5
S'\x00\x00\x00\x00\x00\x80P@'
p2963
tp2964
Rp2965
I01
tp2966
F0.25011368804001816
s(I20
I5
g1944
I00
tp2967
F99.97295469912103
s(I20
I13
g1
(g5
S'\x00\x00\x00\x00\x00\x00N@'
p2968
tp2969
Rp2970
I01
tp2971
F0.0
s(I20
I13
g1948
I00
tp2972
F0.0
s(I20
I2
g1
(g5
S'\x00\x00\x00\x00\x00\x80R@'
p2973
tp2974
Rp2975
I00
tp2976
F90.0473292765382
s(I20
I2
g1952
I01
tp2977
F38.2219190541155
s(I20
I10
g1957
I01
tp2978
F0.0
s(I20
I3
g1
(g5
S'\x00\x00\x00\x00\x00\x00L@'
p2979
tp2980
Rp2981
I01
tp2982
F34.58390177353343
s(I20
I11
g1962
I00
tp2983
F0.0
s(I20
I1
g1
(g5
S'\x00\x00\x00\x00\x00\x00(@'
p2984
tp2985
Rp2986
I01
tp2987
F0.0
s(I20
I1
g1967
I00
tp2988
F47.97836375929682
s(I20
I6
g1
(g5
S'\x00\x00\x00\x00\x00\x80X@'
p2989
tp2990
Rp2991
I00
tp2992
F100.0
s(I20
I6
g1972
I01
tp2993
F0.0
s(I20
I9
g1977
I00
tp2994
F0.0
s(I20
I7
g1
(g5
S'\x00\x00\x00\x00\x00\x000@'
p2995
tp2996
Rp2997
I01
tp2998
F0.0
s(I20
I7
g1983
I00
tp2999
F0.0
s(I20
I5
g1
(g5
S'\x00\x00\x00\x00\x00\x00<@'
p3000
tp3001
Rp3002
I01
tp3003
F0.0
s(I20
I5
g1988
I00
tp3004
F0.0
s(I20
I3
g1
(g5
S'\x00\x00\x00\x00\x00\x80W@'
p3005
tp3006
Rp3007
I01
tp3008
F100.0
s(I20
I12
g1
(g5
S'\x00\x00\x00\x00\x00\x00P@'
p3009
tp3010
Rp3011
I00
tp3012
F0.0
s(I20
I7
g1997
I00
tp3013
F0.0
s(I20
I10
g1
(g5
S'\x00\x00\x00\x00\x00\x00$@'
p3014
tp3015
Rp3016
I00
tp3017
F0.0
s(I20
I8
g1
(g5
S'\x00\x00\x00\x00\x00\x00\x00@'
p3018
tp3019
Rp3020
I00
tp3021
F0.0
s(I20
I8
g2001
I01
tp3022
F29.51341518872215
s(I20
I9
g1
(g5
S'\x00\x00\x00\x00\x00\x00S@'
p3023
tp3024
Rp3025
I01
tp3026
F0.0
s(I20
I14
g1
(g5
S'\x00\x00\x00\x00\x00\x002@'
p3027
tp3028
Rp3029
I00
tp3030
F0.0
s(I20
I4
g2006
I01
tp3031
F78.71759890859482
s(I20
I12
g1
(g5
S'\x00\x00\x00\x00\x00\x00E@'
p3032
tp3033
Rp3034
I00
tp3035
F0.0
s(I20
I12
g2010
I01
tp3036
F0.0
s(I20
I5
g1
(g5
S'\x00\x00\x00\x00\x00\x80X@'
p3037
tp3038
Rp3039
I01
tp3040
F100.0
s(I20
I13
g1
(g5
S'\x00\x00\x00\x00\x00\x00W@'
p3041
tp3042
Rp3043
I01
tp3044
F0.0
s(I20
I2
g1
(g5
S'\x00\x00\x00\x00\x00\x00E@'
p3045
tp3046
Rp3047
I00
tp3048
F26.463826910074374
s(I20
I2
g2015
I01
tp3049
F0.0
s(I20
I10
g1
(g5
S'\x00\x00\x00\x00\x00\x00T@'
p3050
tp3051
Rp3052
I00
tp3053
F0.0
s(I20
I10
g2019
I01
tp3054
F0.0
s(I20
I11
g1
(g5
S'\x00\x00\x00\x00\x00\x00>@'
p3055
tp3056
Rp3057
I01
tp3058
F0.0
s(I20
I11
g2024
I00
tp3059
F0.0
s(I20
I1
g1
(g5
S'\x00\x00\x00\x00\x00\x00F@'
p3060
tp3061
Rp3062
I01
tp3063
F70.55479763528876
s(I20
I1
g2029
I00
tp3064
F90.30425963488844
s(I20
I6
g1
(g5
S'\x00\x00\x00\x00\x00\x80P@'
p3065
tp3066
Rp3067
I00
tp3068
F0.0
s(I20
I6
g2034
I01
tp3069
F0.0
s(I20
I9
g1
(g5
S'\x00\x00\x00\x00\x00\x006@'
p3070
tp3071
Rp3072
I01
tp3073
F0.0
s(I20
I9
g2038
I00
tp3074
F0.0
s(I20
I14
g2043
I01
tp3075
F0.0
s(I20
I7
g1
(g5
S'\x00\x00\x00\x00\x00\x00H@'
p3076
tp3077
Rp3078
I01
tp3079
F0.0
s(I20
I4
g2048
I01
tp3080
F0.0
s(I20
I5
g1
(g5
S'\x00\x00\x00\x00\x00\x00N@'
p3081
tp3082
Rp3083
I01
tp3084
F0.0
s(I20
I5
g2054
I00
tp3085
F92.26504394861392
s(I20
I13
g2058
I00
tp3086
F0.0
s(I20
I2
g2063
I01
tp3087
F100.0
s(I20
I3
g2068
I00
tp3088
F0.0
s(I20
I11
g2073
I00
tp3089
F0.0
s(I20
I7
g1
(g5
S'\x00\x00\x00\x00\x00\x80S@'
p3090
tp3091
Rp3092
I01
tp3093
F0.0
s(I20
I8
g1
(g5
S'\x00\x00\x00\x00\x00\x80X@'
p3094
tp3095
Rp3096
I00
tp3097
F87.35632183908046
s(I20
I8
g2081
I01
tp3098
F0.0
s(I20
I4
g10
I00
tp3099
F79.91886409736308
s(I20
I12
g18
I00
tp3100
F0.0
s(I20
I2
g30
I00
tp3101
F0.0
s(I20
I10
g34
I00
tp3102
F0.0
s(I20
I10
g2086
I01
tp3103
F0.0
s(I20
I11
g46
I01
tp3104
F0.0
s(I20
I8
g2090
I01
tp3105
F0.0
s(I20
I1
g54
I01
tp3106
F97.65802637562528
s(I20
I1
g2095
I00
tp3107
F100.0
s(I20
I6
g62
I00
tp3108
F0.0
s(I20
I9
g70
I01
tp3109
F0.0
s(I20
I9
g2099
I00
tp3110
F0.0
s(I20
I14
g74
I00
tp3111
F0.0
s(I20
I14
g2103
I01
tp3112
F0.0
s(I20
I4
g82
I00
tp3113
F0.0
s(I20
I4
g2108
I01
tp3114
F0.0
s(I20
I12
g2112
I01
tp3115
F0.0
s(I20
I5
g90
I01
tp3116
F97.11232378353797
s(I20
I13
g94
I01
tp3117
F0.0
s(I20
I13
g2117
I00
tp3118
F0.0
s(I20
I2
g98
I00
tp3119
F100.0
s(I20
I2
g2122
I01
tp3120
F84.94770350159163
s(I20
I3
g102
I01
tp3121
F0.0
s(I20
I3
g2128
I00
tp3122
F3.5429344151453686
s(I20
I11
g106
I01
tp3123
F0.0
s(I20
I1
g2133
I00
tp3124
F0.0
s(I20
I6
g2138
I01
tp3125
F80.01364256480218
s(I20
I7
g2145
I00
tp3126
F0.0
s(I20
I5
g2150
I00
tp3127
F0.0
s(I20
I8
g114
I00
tp3128
F0.0
s(I20
I3
g2155
I00
tp3129
F97.13319810682893
s(I20
I12
g2159
I01
tp3130
F0.0
s(I20
I10
g134
I00
tp3131
F0.0
s(I20
I8
g142
I00
tp3132
F0.0
s(I20
I8
g2164
I01
tp3133
F0.0
s(I20
I6
g154
I00
tp3134
F0.0
s(I20
I9
g162
I01
tp3135
F0.0
s(I20
I14
g170
I00
tp3136
F0.0
s(I20
I14
g2168
I01
tp3137
F0.0
s(I20
I4
g178
I00
tp3138
F0.0
s(I20
I12
g182
I00
tp3139
F0.0
s(I20
I12
g2173
I01
tp3140
F0.0
s(I20
I13
g194
I01
tp3141
F0.0
s(I20
I13
g2177
I00
tp3142
F0.0
s(I20
I2
g198
I00
tp3143
F79.87829614604462
s(I20
I2
g2182
I01
tp3144
F5.2296498408367444
s(I20
I10
g2187
I01
tp3145
F0.0
s(I20
I3
g206
I01
tp3146
F55.38881309686221
s(I20
I11
g2192
I00
tp3147
F0.0
s(I20
I1
g214
I01
tp3148
F0.0
s(I20
I1
g2198
I00
tp3149
F52.81947261663286
s(I20
I6
g218
I00
tp3150
F62.488167680865445
s(I20
I6
g2202
I01
tp3151
F0.0
s(I20
I9
g2207
I00
tp3152
F0.0
s(I20
I14
g2212
I01
tp3153
F0.0
s(I20
I7
g222
I01
tp3154
F0.0
s(I20
I7
g2217
I00
tp3155
F0.0
s(I20
I5
g226
I01
tp3156
F0.0
s(I20
I5
g2222
I00
tp3157
F0.0
s(I20
I3
g234
I01
tp3158
F96.293769895407
s(I20
I12
g238
I00
tp3159
F0.0
s(I20
I7
g2232
I00
tp3160
F0.0
s(I20
I8
g250
I00
tp3161
F0.0
s(I20
I14
g266
I00
tp3162
F0.0
s(I20
I4
g2238
I01
tp3163
F56.9349704411096
s(I20
I12
g278
I00
tp3164
F0.0
s(I20
I13
g286
I01
tp3165
F0.0
s(I20
I2
g294
I00
tp3166
F1.0277214334009466
s(I20
I2
g2243
I01
tp3167
F0.0
s(I20
I10
g298
I00
tp3168
F0.0
s(I20
I10
g2247
I01
tp3169
F0.0
s(I20
I11
g310
I01
tp3170
F0.0
s(I20
I11
g2252
I00
tp3171
F0.0
s(I20
I1
g318
I01
tp3172
F59.276944065484315
s(I20
I1
g2257
I00
tp3173
F91.56186612576064
s(I20
I6
g326
I00
tp3174
F0.0
s(I20
I6
g2261
I01
tp3175
F0.0
s(I20
I9
g330
I01
tp3176
F0.0
s(I20
I9
g2265
I00
tp3177
F0.0
s(I20
I14
g2270
I01
tp3178
F0.0
s(I20
I7
g338
I01
tp3179
F0.0
s(I20
I4
g2275
I01
tp3180
F0.0
s(I20
I5
g346
I01
tp3181
F0.0
s(I20
I5
g2281
I00
tp3182
F73.95537525354969
s(I20
I13
g2285
I00
tp3183
F0.0
s(I20
I2
g2290
I01
tp3184
F99.97726239199636
s(I20
I3
g2296
I00
tp3185
F0.0
s(I20
I11
g2301
I00
tp3186
F0.0
s(I20
I1
g2305
I00
tp3187
F38.891142663962135
s(I20
I7
g358
I01
tp3188
F0.0
s(I20
I8
g2313
I01
tp3189
F0.0
s(I20
I4
g374
I00
tp3190
F60.554428668018936
s(I20
I12
g2318
I01
tp3191
F0.0
s(I20
I2
g390
I00
tp3192
F0.0
s(I20
I10
g398
I00
tp3193
F0.0
s(I20
I10
g2323
I01
tp3194
F0.0
s(I20
I11
g406
I01
tp3195
F0.0
s(I20
I8
g2327
I01
tp3196
F0.0
s(I20
I1
g414
I01
tp3197
F94.63392451114143
s(I20
I6
g422
I00
tp3198
F0.0
s(I20
I9
g430
I01
tp3199
F0.0
s(I20
I9
g2331
I00
tp3200
F0.0
s(I20
I14
g434
I00
tp3201
F0.0
s(I20
I14
g2335
I01
tp3202
F0.0
s(I20
I4
g442
I00
tp3203
F0.0
s(I20
I4
g2340
I01
tp3204
F0.0
s(I20
I12
g2345
I01
tp3205
F0.0
s(I20
I5
g450
I01
tp3206
F84.2655752614825
s(I20
I13
g454
I01
tp3207
F0.0
s(I20
I13
g2350
I00
tp3208
F0.0
s(I20
I2
g2355
I01
tp3209
F67.91723510686676
s(I20
I3
g458
I01
tp3210
F0.0
s(I20
I3
g2361
I00
tp3211
F21.595672751859365
s(I20
I11
g462
I01
tp3212
F0.0
s(I20
I1
g466
I01
tp3213
F27.921782628467483
s(I20
I1
g2366
I00
tp3214
F88.08654496281271
s(I20
I6
g2371
I01
tp3215
F6.116416552978627
s(I20
I7
g2377
I00
tp3216
F0.0
s(I20
I5
g2383
I00
tp3217
F0.0
s(I20
I8
g474
I00
tp3218
F0.0
s(I20
I3
g2389
I00
tp3219
F84.59770114942529
s(I20
I12
g482
I00
tp3220
F0.0
s(I20
I7
g2394
I00
tp3221
F48.627450980392155
s(I20
I10
g494
I00
tp3222
F0.0
s(I20
I8
g502
I00
tp3223
F0.0
s(I20
I8
g2398
I01
tp3224
F0.0
s(I20
I9
g518
I01
tp3225
F0.0
s(I20
I14
g526
I00
tp3226
F0.0
s(I20
I14
g2403
I01
tp3227
F0.0
s(I20
I4
g534
I00
tp3228
F0.0
s(I20
I4
g2407
I01
tp3229
F100.0
s(I20
I12
g538
I00
tp3230
F0.0
s(I20
I12
g2412
I01
tp3231
F0.0
s(I20
I13
g550
I01
tp3232
F0.0
s(I20
I13
g2416
I00
tp3233
F0.0
s(I20
I2
g554
I00
tp3234
F86.4367816091954
s(I20
I2
g2420
I01
tp3235
F0.0
s(I20
I10
g2424
I01
tp3236
F0.0
s(I20
I3
g562
I01
tp3237
F18.190086402910413
s(I20
I11
g2429
I00
tp3238
F0.0
s(I20
I1
g574
I01
tp3239
F84.87949067758072
s(I20
I1
g2435
I00
tp3240
F100.0
s(I20
I6
g578
I00
tp3241
F44.354293441514535
s(I20
I6
g2439
I01
tp3242
F0.0
s(I20
I9
g2444
I00
tp3243
F0.0
s(I20
I7
g582
I01
tp3244
F0.0
s(I20
I7
g2450
I00
tp3245
F0.0
s(I20
I4
g2454
I01
tp3246
F5.343337880854934
s(I20
I5
g586
I01
tp3247
F0.0
s(I20
I5
g2459
I00
tp3248
F0.0
s(I20
I3
g594
I01
tp3249
F85.17507958162801
s(I20
I11
g2467
I00
tp3250
F0.0
s(I20
I8
g610
I00
tp3251
F0.0
s(I20
I14
g626
I00
tp3252
F0.0
s(I20
I4
g2473
I01
tp3253
F28.08094588449295
s(I20
I12
g638
I00
tp3254
F0.0
s(I20
I13
g646
I01
tp3255
F0.0
s(I20
I2
g654
I00
tp3256
F14.996619337390129
s(I20
I10
g658
I00
tp3257
F0.0
s(I20
I10
g2478
I01
tp3258
F0.0
s(I20
I11
g666
I01
tp3259
F0.0
s(I20
I11
g2483
I00
tp3260
F0.0
s(I20
I8
g2487
I01
tp3261
F0.0
s(I20
I1
g674
I01
tp3262
F100.0
s(I20
I6
g682
I00
tp3263
F0.0
s(I20
I6
g2492
I01
tp3264
F0.0
s(I20
I9
g686
I01
tp3265
F0.0
s(I20
I9
g2496
I00
tp3266
F0.0
s(I20
I14
g2501
I01
tp3267
F0.0
s(I20
I7
g694
I01
tp3268
F0.0
s(I20
I4
g698
I00
tp3269
F8.059499661933739
s(I20
I4
g2506
I01
tp3270
F0.0
s(I20
I5
g706
I01
tp3271
F0.0
s(I20
I5
g2511
I00
tp3272
F37.146720757268426
s(I20
I13
g2515
I00
tp3273
F0.0
s(I20
I2
g2520
I01
tp3274
F100.0
s(I20
I3
g2525
I00
tp3275
F0.0
s(I20
I11
g714
I01
tp3276
F0.0
s(I20
I1
g2531
I00
tp3277
F0.3380662609871535
s(I20
I7
g718
I01
tp3278
F0.0
s(I20
I7
g2537
I00
tp3279
F0.0
s(I20
I8
g2543
I01
tp3280
F0.0
s(I20
I4
g730
I00
tp3281
F31.818796484110884
s(I20
I12
g2548
I01
tp3282
F0.0
s(I20
I13
g742
I01
tp3283
F0.0
s(I20
I2
g750
I00
tp3284
F0.0
s(I20
I10
g758
I00
tp3285
F0.0
s(I20
I10
g2553
I01
tp3286
F0.0
s(I20
I11
g766
I01
tp3287
F0.0
s(I20
I8
g770
I00
tp3288
F0.0
s(I20
I8
g2557
I01
tp3289
F0.0
s(I20
I6
g782
I00
tp3290
F0.0
s(I20
I9
g790
I01
tp3291
F0.0
s(I20
I9
g2561
I00
tp3292
F0.0
s(I20
I14
g798
I00
tp3293
F0.0
s(I20
I14
g2565
I01
tp3294
F0.0
s(I20
I4
g806
I00
tp3295
F0.0
s(I20
I12
g2571
I01
tp3296
F0.0
s(I20
I5
g814
I01
tp3297
F55.04774897680764
s(I20
I13
g818
I01
tp3298
F0.0
s(I20
I13
g2576
I00
tp3299
F0.0
s(I20
I2
g822
I00
tp3300
F100.0
s(I20
I2
g2580
I01
tp3301
F79.53615279672579
s(I20
I3
g826
I01
tp3302
F0.0
s(I20
I3
g2586
I00
tp3303
F0.3110209601081812
s(I20
I11
g2590
I00
tp3304
F0.0
s(I20
I1
g830
I01
tp3305
F5.115961800818554
s(I20
I1
g2595
I00
tp3306
F76.01081812035159
s(I20
I6
g2600
I01
tp3307
F1.6143701682582994
s(I20
I7
g838
I01
tp3308
F99.84083674397453
s(I20
I7
g2607
I00
tp3309
F0.0
s(I20
I5
g2612
I00
tp3310
F0.0
s(I20
I8
g842
I00
tp3311
F0.0
s(I20
I3
g2618
I00
tp3312
F62.98850574712643
s(I20
I12
g850
I00
tp3313
F0.0
s(I20
I7
g2623
I00
tp3314
F19.283299526707236
s(I20
I10
g866
I00
tp3315
F0.0
s(I20
I8
g878
I00
tp3316
F0.0
s(I20
I9
g890
I01
tp3317
F0.0
s(I20
I9
g2628
I00
tp3318
F0.0
s(I20
I14
g898
I00
tp3319
F0.0
s(I20
I14
g2632
I01
tp3320
F0.0
s(I20
I4
g2636
I01
tp3321
F99.59072305593452
s(I20
I12
g906
I00
tp3322
F0.0
s(I20
I12
g2640
I01
tp3323
F0.0
s(I20
I13
g918
I01
tp3324
F0.0
s(I20
I13
g2644
I00
tp3325
F0.0
s(I20
I2
g926
I00
tp3326
F73.14401622718053
s(I20
I2
g2648
I01
tp3327
F0.5457025920873124
s(I20
I10
g930
I00
tp3328
F0.0
s(I20
I10
g2652
I01
tp3329
F0.0
s(I20
I3
g938
I01
tp3330
F0.09095043201455207
s(I20
I11
g946
I01
tp3331
F0.0
s(I20
I11
g2657
I00
tp3332
F0.0
s(I20
I1
g954
I01
tp3333
F78.89949977262391
s(I20
I1
g2662
I00
tp3334
F98.94523326572008
s(I20
I6
g958
I00
tp3335
F0.0676132521974307
s(I20
I6
g2666
I01
tp3336
F0.0
s(I20
I9
g2671
I00
tp3337
F0.0
s(I20
I14
g2676
I01
tp3338
F0.0
s(I20
I7
g966
I01
tp3339
F0.0
s(I20
I4
g2681
I01
tp3340
F0.09095043201455207
s(I20
I5
g970
I01
tp3341
F0.0
s(I20
I5
g2686
I00
tp3342
F0.0
s(I20
I13
g2691
I00
tp3343
F0.0
s(I20
I3
g978
I01
tp3344
F61.68713051386994
s(I20
I3
g2697
I00
tp3345
F100.0
s(I20
I11
g2702
I00
tp3346
F0.0
s(I20
I7
g986
I01
tp3347
F6.2755798090040935
s(I20
I8
g2708
I01
tp3348
F0.0
s(I20
I9
g1002
I01
tp3349
F0.0
s(I20
I14
g1010
I00
tp3350
F0.0
s(I20
I4
g1018
I00
tp3351
F99.97295469912103
s(I20
I12
g1026
I00
tp3352
F0.0
s(I20
I13
g1034
I01
tp3353
F0.0
s(I20
I2
g1042
I00
tp3354
F0.0
s(I20
I10
g1050
I00
tp3355
F0.0
s(I20
I10
g2714
I01
tp3356
F0.0
s(I20
I11
g1058
I01
tp3357
F0.0
s(I20
I8
g2719
I01
tp3358
F0.0
s(I20
I1
g1066
I01
tp3359
F99.6361982719418
s(I20
I6
g1074
I00
tp3360
F0.0
s(I20
I6
g2724
I01
tp3361
F0.0
s(I20
I9
g1078
I01
tp3362
F0.0
s(I20
I9
g2728
I00
tp3363
F0.0
s(I20
I14
g2733
I01
tp3364
F0.0
s(I20
I7
g1086
I01
tp3365
F0.0
s(I20
I4
g1090
I00
tp3366
F0.2028397565922921
s(I20
I4
g2738
I01
tp3367
F0.0
s(I20
I5
g1098
I01
tp3368
F0.0
s(I20
I5
g2743
I00
tp3369
F6.801893171061528
s(I20
I13
g1102
I01
tp3370
F0.0
s(I20
I13
g2747
I00
tp3371
F0.0
s(I20
I2
g2752
I01
tp3372
F98.90859481582538
s(I20
I3
g1110
I01
tp3373
F100.0
s(I20
I3
g2757
I00
tp3374
F0.0
s(I20
I11
g1114
I01
tp3375
F0.0
s(I20
I1
g2763
I00
tp3376
F0.0
s(I20
I7
g2770
I00
tp3377
F0.0
s(I20
I8
g1122
I00
tp3378
F0.0
s(I20
I3
g2776
I00
tp3379
F98.78296146044624
s(I20
I12
g2780
I01
tp3380
F0.0
s(I20
I10
g1150
I00
tp3381
F0.0
s(I20
I10
g2785
I01
tp3382
F0.0
s(I20
I8
g1158
I00
tp3383
F0.0
s(I20
I8
g2789
I01
tp3384
F0.0
s(I20
I6
g1170
I00
tp3385
F0.0
s(I20
I9
g1178
I01
tp3386
F0.0
s(I20
I9
g2793
I00
tp3387
F0.0
s(I20
I14
g1182
I00
tp3388
F0.0
s(I20
I14
g2797
I01
tp3389
F0.0
s(I20
I4
g1194
I00
tp3390
F0.0
s(I20
I12
g2802
I01
tp3391
F0.0
s(I20
I5
g1202
I01
tp3392
F18.69031377899045
s(I20
I13
g1210
I01
tp3393
F0.0
s(I20
I13
g2807
I00
tp3394
F0.0
s(I20
I2
g1214
I00
tp3395
F97.16024340770791
s(I20
I2
g2811
I01
tp3396
F58.34470213733515
s(I20
I3
g1218
I01
tp3397
F0.0
s(I20
I3
g2817
I00
tp3398
F0.0
s(I20
I11
g2821
I00
tp3399
F0.0
s(I20
I1
g1226
I01
tp3400
F12.778535698044566
s(I20
I1
g2826
I00
tp3401
F66.47734956051387
s(I20
I6
g2831
I01
tp3402
F0.0
s(I20
I7
g1230
I01
tp3403
F0.0
s(I20
I7
g2838
I00
tp3404
F0.0
s(I20
I5
g2843
I00
tp3405
F0.0
s(I20
I12
g1242
I00
tp3406
F0.0
s(I20
I7
g2851
I00
tp3407
F0.0
s(I20
I10
g1250
I00
tp3408
F0.0
s(I20
I8
g1262
I00
tp3409
F0.0
s(I20
I9
g1274
I01
tp3410
F0.0
s(I20
I14
g1282
I00
tp3411
F0.0
s(I20
I4
g2856
I01
tp3412
F93.74715779899955
s(I20
I12
g1290
I00
tp3413
F0.0
s(I20
I12
g2860
I01
tp3414
F0.0
s(I20
I13
g1302
I01
tp3415
F0.0
s(I20
I2
g1310
I00
tp3416
F48.15415821501014
s(I20
I2
g2864
I01
tp3417
F0.0
s(I20
I10
g2868
I01
tp3418
F0.0
s(I20
I3
g1318
I01
tp3419
F0.0
s(I20
I11
g1322
I01
tp3420
F0.0
s(I20
I11
g2873
I00
tp3421
F0.0
s(I20
I1
g1330
I01
tp3422
F81.03683492496589
s(I20
I1
g2878
I00
tp3423
F95.68627450980392
s(I20
I6
g1334
I00
tp3424
F0.013522650439486139
s(I20
I6
g2882
I01
tp3425
F0.0
s(I20
I9
g2887
I00
tp3426
F0.0
s(I20
I14
g2892
I01
tp3427
F0.0
s(I20
I7
g1342
I01
tp3428
F0.0
s(I20
I4
g2897
I01
tp3429
F0.0
s(I20
I5
g1346
I01
tp3430
F0.0
s(I20
I5
g2902
I00
tp3431
F0.0
s(I20
I13
g2907
I00
tp3432
F0.0
s(I20
I3
g1350
I01
tp3433
F77.8080945884493
s(I20
I3
g2913
I00
tp3434
F0.0
s(I20
I11
g2918
I00
tp3435
F0.0
s(I20
I7
g1358
I01
tp3436
F1.1596180081855387
s(I20
I8
g2927
I01
tp3437
F0.0
s(I20
I14
g1378
I00
tp3438
F0.0
s(I20
I4
g1382
I00
tp3439
F95.05070993914806
s(I20
I12
g1390
I00
tp3440
F0.0
s(I20
I12
g2932
I01
tp3441
F0.0
s(I20
I2
g1402
I00
tp3442
F0.0
s(I20
I10
g1406
I00
tp3443
F0.0
s(I20
I10
g2937
I01
tp3444
F0.0
s(I20
I11
g1418
I01
tp3445
F0.0
s(I20
I8
g2942
I01
tp3446
F0.0
s(I20
I1
g1426
I01
tp3447
F99.93178717598909
s(I20
I6
g1434
I00
tp3448
F0.0
s(I20
I6
g2947
I01
tp3449
F0.0
s(I20
I9
g1438
I01
tp3450
F0.0
s(I20
I9
g2951
I00
tp3451
F0.0
s(I20
I14
g1442
I00
tp3452
F0.0
s(I20
I14
g2955
I01
tp3453
F0.0
s(I20
I4
g1450
I00
tp3454
F0.0
s(I20
I4
g2960
I01
tp3455
F0.0
s(I20
I5
g1458
I01
tp3456
F0.0
s(I20
I5
g2965
I00
tp3457
F0.054090601757944556
s(I20
I13
g1462
I01
tp3458
F0.0
s(I20
I13
g2970
I00
tp3459
F0.0
s(I20
I2
g2975
I01
tp3460
F92.31468849477035
s(I20
I3
g2981
I00
tp3461
F28.50574712643678
s(I20
I11
g1470
I01
tp3462
F0.0
s(I20
I1
g2986
I00
tp3463
F0.0
s(I20
I6
g2991
I01
tp3464
F100.0
s(I20
I7
g2997
I00
tp3465
F0.0
s(I20
I5
g3002
I00
tp3466
F0.0
s(I20
I8
g1478
I00
tp3467
F0.0
s(I20
I3
g3007
I00
tp3468
F100.0
s(I20
I12
g1494
I00
tp3469
F0.0
s(I20
I12
g3011
I01
tp3470
F0.0
s(I20
I10
g1506
I00
tp3471
F0.0
s(I20
I10
g3016
I01
tp3472
F0.0
s(I20
I8
g1514
I00
tp3473
F0.0
s(I20
I8
g3020
I01
tp3474
F0.0
s(I20
I6
g1526
I00
tp3475
F0.0
s(I20
I9
g1534
I01
tp3476
F0.0
s(I20
I9
g3025
I00
tp3477
F0.0
s(I20
I14
g1542
I00
tp3478
F0.0
s(I20
I14
g3029
I01
tp3479
F0.0
s(I20
I4
g1550
I00
tp3480
F0.0
s(I20
I12
g3034
I01
tp3481
F0.0
s(I20
I5
g1558
I01
tp3482
F1.1596180081855387
s(I20
I5
g3039
I00
tp3483
F100.0
s(I20
I13
g1566
I01
tp3484
F0.0
s(I20
I13
g3043
I00
tp3485
F0.0
s(I20
I2
g1570
I00
tp3486
F88.3840432724814
s(I20
I2
g3047
I01
tp3487
F32.196452933151434
s(I20
I10
g3052
I01
tp3488
F0.0
s(I20
I3
g1574
I01
tp3489
F0.0
s(I20
I11
g3057
I00
tp3490
F0.0
s(I20
I1
g1582
I01
tp3491
F0.022737608003638016
s(I20
I1
g3062
I00
tp3492
F70.236646382691
s(I20
I6
g1586
I00
tp3493
F98.9317106152806
s(I20
I6
g3067
I01
tp3494
F0.0
s(I20
I9
g3072
I00
tp3495
F0.0
s(I20
I7
g1590
I01
tp3496
F0.0
s(I20
I7
g3078
I00
tp3497
F0.0
s(I20
I5
g1594
I01
tp3498
F0.0
s(I20
I5
g3083
I00
tp3499
F0.0
s(I20
I3
g1602
I01
tp3500
F100.0
s(I20
I12
g1606
I00
tp3501
F0.0
s(I20
I7
g3092
I00
tp3502
F0.0
s(I20
I10
g1614
I00
tp3503
F0.0
s(I20
I8
g1622
I00
tp3504
F0.0
s(I20
I8
g3096
I01
tp3505
F85.83447021373351
s(I20
I9
g1634
I01
tp3506
F0.0
s(I20
I14
g1642
I00
tp3507
F0.0
s.